
app_dump.elf:     file format elf32-littlearm

SYMBOL TABLE:
00000000 l    d  APLX	00000000 APLX
00000000 l    d  RO_DATA	00000000 RO_DATA
00400000 l    d  RW_DATA	00000000 RW_DATA
00400018 l    d  ZI_DATA	00000000 ZI_DATA
00000000 l    d  .ARM.attributes	00000000 .ARM.attributes
00000000 l    d  .comment	00000000 .comment
00000001 l       *ABS*	00000000 SARK_API
00000001 l       *ABS*	00000000 GNU
00000012 l       *ABS*	00000000 NUM_CPUS
00000011 l       *ABS*	00000000 MAX_CPU
00000006 l       *ABS*	00000000 NUM_LINKS
00000005 l       *ABS*	00000000 MAX_LINK
00000000 l       *ABS*	00000000 ITCM_BASE
00008000 l       *ABS*	00000000 ITCM_SIZE
00008000 l       *ABS*	00000000 ITCM_TOP
00007fc0 l       *ABS*	00000000 ITCM_TOP_64
00007e00 l       *ABS*	00000000 ITCM_TOP_512
00400000 l       *ABS*	00000000 DTCM_BASE
00010000 l       *ABS*	00000000 DTCM_SIZE
00410000 l       *ABS*	00000000 DTCM_TOP
70000000 l       *ABS*	00000000 SDRAM_BASE
08000000 l       *ABS*	00000000 SDRAM_SIZE
78000000 l       *ABS*	00000000 SDRAM_TOP
f5000000 l       *ABS*	00000000 SYSRAM_BASE
00008000 l       *ABS*	00000000 SYSRAM_SIZE
f5008000 l       *ABS*	00000000 SYSRAM_TOP
f6000000 l       *ABS*	00000000 ROM_BASE
00008000 l       *ABS*	00000000 ROM_SIZE
f6008000 l       *ABS*	00000000 ROM_TOP
10000000 l       *ABS*	00000000 CC_BASE
00000000 l       *ABS*	00000000 CC_TCR
00000004 l       *ABS*	00000000 CC_TXDATA
00000008 l       *ABS*	00000000 CC_TXKEY
0000000c l       *ABS*	00000000 CC_RSR
00000010 l       *ABS*	00000000 CC_RXDATA
00000014 l       *ABS*	00000000 CC_RXKEY
00000018 l       *ABS*	00000000 CC_SAR
0000001c l       *ABS*	00000000 CC_TEST
11000000 l       *ABS*	00000000 TIMER_BASE
00000000 l       *ABS*	00000000 T1_LOAD
00000004 l       *ABS*	00000000 T1_COUNT
00000008 l       *ABS*	00000000 T1_CONTROL
0000000c l       *ABS*	00000000 T1_INT_CLR
00000010 l       *ABS*	00000000 T1_RAW_INT
00000014 l       *ABS*	00000000 T1_MASK_INT
00000018 l       *ABS*	00000000 T1_BG_LOAD
00000020 l       *ABS*	00000000 T2_LOAD
00000024 l       *ABS*	00000000 T2_COUNT
00000028 l       *ABS*	00000000 T2_CONTROL
0000002c l       *ABS*	00000000 T2_INT_CLR
00000030 l       *ABS*	00000000 T2_RAW_INT
00000034 l       *ABS*	00000000 T2_MASK_INT
00000038 l       *ABS*	00000000 T2_BG_LOAD
1f000000 l       *ABS*	00000000 VIC_BASE
00000000 l       *ABS*	00000000 VIC_IRQST
00000004 l       *ABS*	00000000 VIC_FIQST
00000008 l       *ABS*	00000000 VIC_RAW
0000000c l       *ABS*	00000000 VIC_SELECT
00000010 l       *ABS*	00000000 VIC_ENABLE
00000014 l       *ABS*	00000000 VIC_DISABLE
00000018 l       *ABS*	00000000 VIC_SOFT_SET
0000001c l       *ABS*	00000000 VIC_SOFT_CLR
00000020 l       *ABS*	00000000 VIC_PROTECT
00000030 l       *ABS*	00000000 VIC_VADDR
00000034 l       *ABS*	00000000 VIC_DEFADDR
00000100 l       *ABS*	00000000 VIC_ADDR0
00000104 l       *ABS*	00000000 VIC_ADDR1
00000108 l       *ABS*	00000000 VIC_ADDR2
0000010c l       *ABS*	00000000 VIC_ADDR3
00000110 l       *ABS*	00000000 VIC_ADDR4
00000114 l       *ABS*	00000000 VIC_ADDR5
00000118 l       *ABS*	00000000 VIC_ADDR6
0000011c l       *ABS*	00000000 VIC_ADDR7
00000120 l       *ABS*	00000000 VIC_ADDR8
00000124 l       *ABS*	00000000 VIC_ADDR9
00000128 l       *ABS*	00000000 VIC_ADDR10
0000012c l       *ABS*	00000000 VIC_ADDR11
00000130 l       *ABS*	00000000 VIC_ADDR12
00000134 l       *ABS*	00000000 VIC_ADDR13
00000138 l       *ABS*	00000000 VIC_ADDR14
0000013c l       *ABS*	00000000 VIC_ADDR15
00000200 l       *ABS*	00000000 VIC_CNTL0
00000204 l       *ABS*	00000000 VIC_CNTL1
00000208 l       *ABS*	00000000 VIC_CNTL2
0000020c l       *ABS*	00000000 VIC_CNTL3
00000210 l       *ABS*	00000000 VIC_CNTL4
00000214 l       *ABS*	00000000 VIC_CNTL5
00000218 l       *ABS*	00000000 VIC_CNTL6
0000021c l       *ABS*	00000000 VIC_CNTL7
00000220 l       *ABS*	00000000 VIC_CNTL8
00000224 l       *ABS*	00000000 VIC_CNTL9
00000228 l       *ABS*	00000000 VIC_CNTL10
0000022c l       *ABS*	00000000 VIC_CNTL11
00000230 l       *ABS*	00000000 VIC_CNTL12
00000234 l       *ABS*	00000000 VIC_CNTL13
00000238 l       *ABS*	00000000 VIC_CNTL14
0000023c l       *ABS*	00000000 VIC_CNTL15
00000000 l       *ABS*	00000000 WDOG_INT
00000001 l       *ABS*	00000000 SOFTWARE_INT
00000002 l       *ABS*	00000000 COMM_RX_INT
00000003 l       *ABS*	00000000 COMM_TX_INT
00000004 l       *ABS*	00000000 TIMER1_INT
00000005 l       *ABS*	00000000 TIMER2_INT
00000006 l       *ABS*	00000000 CC_RDY_INT
00000007 l       *ABS*	00000000 CC_RPE_INT
00000008 l       *ABS*	00000000 CC_RFE_INT
00000009 l       *ABS*	00000000 CC_TFL_INT
0000000a l       *ABS*	00000000 CC_TOV_INT
0000000b l       *ABS*	00000000 CC_TMT_INT
0000000c l       *ABS*	00000000 DMA_DONE_INT
0000000d l       *ABS*	00000000 DMA_ERR_INT
0000000e l       *ABS*	00000000 DMA_TO_INT
0000000f l       *ABS*	00000000 RTR_DIAG_INT
00000010 l       *ABS*	00000000 RTR_DUMP_INT
00000011 l       *ABS*	00000000 RTR_ERR_INT
00000012 l       *ABS*	00000000 CPU_INT
00000013 l       *ABS*	00000000 ETH_TX_INT
00000014 l       *ABS*	00000000 ETH_RX_INT
00000015 l       *ABS*	00000000 ETH_PHY_INT
00000016 l       *ABS*	00000000 SLOW_CLK_INT
00000017 l       *ABS*	00000000 CC_TNF_INT
00000018 l       *ABS*	00000000 CC_MC_INT
00000019 l       *ABS*	00000000 CC_P2P_INT
0000001a l       *ABS*	00000000 CC_NN_INT
0000001b l       *ABS*	00000000 CC_FR_INT
0000001c l       *ABS*	00000000 EXT0_INT
0000001d l       *ABS*	00000000 EXT1_INT
0000001e l       *ABS*	00000000 EXT2_INT
0000001f l       *ABS*	00000000 EXT3_INT
30000000 l       *ABS*	00000000 DMA_BASE
00000180 l       *ABS*	00000000 DMA_CRCT
00000004 l       *ABS*	00000000 DMA_ADRS
00000008 l       *ABS*	00000000 DMA_ADRT
0000000c l       *ABS*	00000000 DMA_DESC
00000010 l       *ABS*	00000000 DMA_CTRL
00000014 l       *ABS*	00000000 DMA_STAT
00000018 l       *ABS*	00000000 DMA_GCTL
0000001c l       *ABS*	00000000 DMA_CRCC
00000020 l       *ABS*	00000000 DMA_CRCR
00000024 l       *ABS*	00000000 DMA_TMTV
00000028 l       *ABS*	00000000 DMA_SCTL
00000040 l       *ABS*	00000000 DMA_STAT0
00000044 l       *ABS*	00000000 DMA_STAT1
00000048 l       *ABS*	00000000 DMA_STAT2
0000004c l       *ABS*	00000000 DMA_STAT3
00000050 l       *ABS*	00000000 DMA_STAT4
00000054 l       *ABS*	00000000 DMA_STAT5
00000058 l       *ABS*	00000000 DMA_STAT6
0000005c l       *ABS*	00000000 DMA_STAT7
00000104 l       *ABS*	00000000 DMA_AD2S
00000108 l       *ABS*	00000000 DMA_AD2T
0000010c l       *ABS*	00000000 DMA_DES2
f0000000 l       *ABS*	00000000 PL340_BASE
00000000 l       *ABS*	00000000 MC_STAT
00000004 l       *ABS*	00000000 MC_CMD
00000008 l       *ABS*	00000000 MC_DIRC
0000000c l       *ABS*	00000000 MC_MCFG
00000010 l       *ABS*	00000000 MC_REFP
00000014 l       *ABS*	00000000 MC_CASL
00000018 l       *ABS*	00000000 MC_DQSS
0000001c l       *ABS*	00000000 MC_MRD
00000020 l       *ABS*	00000000 MC_RAS
00000024 l       *ABS*	00000000 MC_RC
00000028 l       *ABS*	00000000 MC_RCD
0000002c l       *ABS*	00000000 MC_RFC
00000030 l       *ABS*	00000000 MC_RP
00000034 l       *ABS*	00000000 MC_RRD
00000038 l       *ABS*	00000000 MC_WR
0000003c l       *ABS*	00000000 MC_WTR
00000040 l       *ABS*	00000000 MC_XP
00000044 l       *ABS*	00000000 MC_XSR
00000048 l       *ABS*	00000000 MC_ESR
0000004c l       *ABS*	00000000 MC_MCFG2
00000050 l       *ABS*	00000000 MC_MCFG3
00000100 l       *ABS*	00000000 MC_QOS0
00000104 l       *ABS*	00000000 MC_QOS1
00000108 l       *ABS*	00000000 MC_QOS2
0000010c l       *ABS*	00000000 MC_QOS3
00000110 l       *ABS*	00000000 MC_QOS4
00000114 l       *ABS*	00000000 MC_QOS5
00000118 l       *ABS*	00000000 MC_QOS6
0000011c l       *ABS*	00000000 MC_QOS7
00000120 l       *ABS*	00000000 MC_QOS8
00000124 l       *ABS*	00000000 MC_QOS9
00000128 l       *ABS*	00000000 MC_QOS10
0000012c l       *ABS*	00000000 MC_QOS11
00000130 l       *ABS*	00000000 MC_QOS12
00000134 l       *ABS*	00000000 MC_QOS13
00000138 l       *ABS*	00000000 MC_QOS14
0000013c l       *ABS*	00000000 MC_QOS15
00000200 l       *ABS*	00000000 MC_CCFG0
00000204 l       *ABS*	00000000 MC_CCFG1
00000208 l       *ABS*	00000000 MC_CCFG2
0000020c l       *ABS*	00000000 MC_CCFG3
00000300 l       *ABS*	00000000 DLL_STATUS
00000304 l       *ABS*	00000000 DLL_CONFIG0
00000308 l       *ABS*	00000000 DLL_CONFIG1
f1000000 l       *ABS*	00000000 RTR_BASE
00000000 l       *ABS*	00000000 RTR_CONTROL
00000004 l       *ABS*	00000000 RTR_STATUS
00000008 l       *ABS*	00000000 RTR_EHDR
0000000c l       *ABS*	00000000 RTR_EKEY
00000010 l       *ABS*	00000000 RTR_EDAT
00000014 l       *ABS*	00000000 RTR_ESTAT
00000018 l       *ABS*	00000000 RTR_DHDR
0000001c l       *ABS*	00000000 RTR_DKEY
00000020 l       *ABS*	00000000 RTR_DDAT
00000024 l       *ABS*	00000000 RTR_DLINK
00000028 l       *ABS*	00000000 RTR_DSTAT
0000002c l       *ABS*	00000000 RTR_DGEN
00000200 l       *ABS*	00000000 RTR_DGF0
00000204 l       *ABS*	00000000 RTR_DGF1
00000208 l       *ABS*	00000000 RTR_DGF2
0000020c l       *ABS*	00000000 RTR_DGF3
00000210 l       *ABS*	00000000 RTR_DGF4
00000214 l       *ABS*	00000000 RTR_DGF5
00000218 l       *ABS*	00000000 RTR_DGF6
0000021c l       *ABS*	00000000 RTR_DGF7
00000300 l       *ABS*	00000000 RTR_DGC0
00000304 l       *ABS*	00000000 RTR_DGC1
00000308 l       *ABS*	00000000 RTR_DGC2
0000030c l       *ABS*	00000000 RTR_DGC3
00000310 l       *ABS*	00000000 RTR_DGC4
00000314 l       *ABS*	00000000 RTR_DGC5
00000318 l       *ABS*	00000000 RTR_DGC6
0000031c l       *ABS*	00000000 RTR_DGC7
00000220 l       *ABS*	00000000 RTR_DGF8
00000224 l       *ABS*	00000000 RTR_DGF9
00000228 l       *ABS*	00000000 RTR_DGF10
0000022c l       *ABS*	00000000 RTR_DGF11
00000230 l       *ABS*	00000000 RTR_DGF12
00000234 l       *ABS*	00000000 RTR_DGF13
00000238 l       *ABS*	00000000 RTR_DGF14
0000023c l       *ABS*	00000000 RTR_DGF15
00000320 l       *ABS*	00000000 RTR_DGC8
00000324 l       *ABS*	00000000 RTR_DGC9
00000328 l       *ABS*	00000000 RTR_DGC10
0000032c l       *ABS*	00000000 RTR_DGC11
00000330 l       *ABS*	00000000 RTR_DGC12
00000334 l       *ABS*	00000000 RTR_DGC13
00000338 l       *ABS*	00000000 RTR_DGC14
0000033c l       *ABS*	00000000 RTR_DGC15
00000f00 l       *ABS*	00000000 RTR_TST1
00000f04 l       *ABS*	00000000 RTR_TST2
00002000 l       *ABS*	00000000 P2P_TABLE_SIZE
00000400 l       *ABS*	00000000 MC_TABLE_SIZE
00000018 l       *ABS*	00000000 MC_RAM_WIDTH
00ffffff l       *ABS*	00000000 MC_RAM_MASK
00000008 l       *ABS*	00000000 P2P_EPW
00000003 l       *ABS*	00000000 P2P_LOG_EPW
00000007 l       *ABS*	00000000 P2P_EMASK
00000003 l       *ABS*	00000000 P2P_BPE
00000007 l       *ABS*	00000000 P2P_BMASK
00db6db6 l       *ABS*	00000000 P2P_INIT
f1010000 l       *ABS*	00000000 RTR_P2P_BASE
f1018000 l       *ABS*	00000000 RTR_P2P_TOP
f1004000 l       *ABS*	00000000 RTR_MCRAM_BASE
f1005000 l       *ABS*	00000000 RTR_MCRAM_TOP
f1008000 l       *ABS*	00000000 RTR_MCKEY_BASE
f100c000 l       *ABS*	00000000 RTR_MCMASK_BASE
00000020 l       *ABS*	00000000 MC_CAM_WIDTH
f2000000 l       *ABS*	00000000 SYSCTL_BASE
5ec00000 l       *ABS*	00000000 SC_CODE
59111012 l       *ABS*	00000000 CHIP_ID
00000000 l       *ABS*	00000000 SC_CHIP_ID
00000004 l       *ABS*	00000000 SC_CPU_DIS
00000008 l       *ABS*	00000000 SC_SET_IRQ
0000000c l       *ABS*	00000000 SC_CLR_IRQ
00000010 l       *ABS*	00000000 SC_SET_OK
00000010 l       *ABS*	00000000 SC_CPU_OK
00000014 l       *ABS*	00000000 SC_CLR_OK
00000018 l       *ABS*	00000000 SC_SOFT_RST_L
0000001c l       *ABS*	00000000 SC_HARD_RST_L
00000020 l       *ABS*	00000000 SC_SUBS_RST_L
00000024 l       *ABS*	00000000 SC_SOFT_RST_P
00000028 l       *ABS*	00000000 SC_HARD_RST_P
0000002c l       *ABS*	00000000 SC_SUBS_RST_P
00000030 l       *ABS*	00000000 SC_RST_CODE
00000034 l       *ABS*	00000000 SC_MON_ID
00000038 l       *ABS*	00000000 SC_MISC_CTRL
0000003c l       *ABS*	00000000 GPIO_RES
00000040 l       *ABS*	00000000 GPIO_PORT
00000044 l       *ABS*	00000000 GPIO_DIR
00000048 l       *ABS*	00000000 GPIO_SET
0000004c l       *ABS*	00000000 GPIO_CLR
00000048 l       *ABS*	00000000 GPIO_READ
00000050 l       *ABS*	00000000 SC_PLL1
00000054 l       *ABS*	00000000 SC_PLL2
00000058 l       *ABS*	00000000 SC_FLAG
00000058 l       *ABS*	00000000 SC_SETFLAG
0000005c l       *ABS*	00000000 SC_CLRFLAG
00000060 l       *ABS*	00000000 SC_CLKMUX
00000064 l       *ABS*	00000000 SC_SLEEP
00000068 l       *ABS*	00000000 SC_TS0
0000006c l       *ABS*	00000000 SC_TS1
00000070 l       *ABS*	00000000 SC_TS2
00000080 l       *ABS*	00000000 SC_ARB0
00000100 l       *ABS*	00000000 SC_TAS0
00000180 l       *ABS*	00000000 SC_TAC0
00000200 l       *ABS*	00000000 SC_LINK_DIS
00000000 l       *ABS*	00000000 RST_POR
00000001 l       *ABS*	00000000 RST_WDT
00000002 l       *ABS*	00000000 RST_USER
00000003 l       *ABS*	00000000 RST_SW
00000004 l       *ABS*	00000000 RST_WDI
f3000000 l       *ABS*	00000000 WDOG_BASE
00000000 l       *ABS*	00000000 WD_LOAD
00000004 l       *ABS*	00000000 WD_COUNT
00000008 l       *ABS*	00000000 WD_CTRL
0000000c l       *ABS*	00000000 WD_INTCLR
00000010 l       *ABS*	00000000 WD_RAWINT
00000014 l       *ABS*	00000000 WD_MSKINT
00000c00 l       *ABS*	00000000 WD_LOCK
1acce551 l       *ABS*	00000000 WD_CODE
00000001 l       *ABS*	00000000 WD_INT_B
00000002 l       *ABS*	00000000 WD_RST_B
f4000000 l       *ABS*	00000000 ETH_BASE
f4000000 l       *ABS*	00000000 ETH_TX_BASE
00000600 l       *ABS*	00000000 ETH_TX_SIZE
f4000600 l       *ABS*	00000000 ETH_TX_TOP
f4004000 l       *ABS*	00000000 ETH_RX_BASE
00000c00 l       *ABS*	00000000 ETH_RX_SIZE
f4004c00 l       *ABS*	00000000 ETH_RX_TOP
f4008000 l       *ABS*	00000000 ETH_RX_DESC_RAM
f400c000 l       *ABS*	00000000 ETH_REGS
00000000 l       *ABS*	00000000 ETH_CONTROL
00000004 l       *ABS*	00000000 ETH_STATUS
00000008 l       *ABS*	00000000 ETH_TX_LEN
0000000c l       *ABS*	00000000 ETH_TX_CMD
00000010 l       *ABS*	00000000 ETH_RX_CMD
00000014 l       *ABS*	00000000 ETH_MAC_LO
00000018 l       *ABS*	00000000 ETH_MAC_HI
0000001c l       *ABS*	00000000 ETH_PHY_CTRL
00000020 l       *ABS*	00000000 ETH_INT_CLR
00000024 l       *ABS*	00000000 ETH_RX_BUF_RP
0000002c l       *ABS*	00000000 ETH_RX_DESC_RP
00000001 l       *ABS*	00000000 ETH_TX_CLR
00000010 l       *ABS*	00000000 ETH_RX_CLR
00000001 l       *ABS*	00000000 PHY_CTRL_NRST
00000002 l       *ABS*	00000000 PHY_CTRL_DIN
00000004 l       *ABS*	00000000 PHY_CTRL_DOUT
00000008 l       *ABS*	00000000 PHY_CTRL_OE
00000010 l       *ABS*	00000000 PHY_CTRL_CLK
00000000 l       *ABS*	00000000 PKT_MC
00400000 l       *ABS*	00000000 PKT_P2P
00800000 l       *ABS*	00000000 PKT_NN
00a00000 l       *ABS*	00000000 PKT_NND
00c00000 l       *ABS*	00000000 PKT_FR
00c00000 l       *ABS*	00000000 PKT_MASK
00030000 l       *ABS*	00000000 P2P_TYPE_BITS
00000000 l       *ABS*	00000000 TCR_MC
00400000 l       *ABS*	00000000 TCR_P2P
00800000 l       *ABS*	00000000 TCR_NN
00a00000 l       *ABS*	00000000 TCR_NND
00c00000 l       *ABS*	00000000 TCR_FR
00020000 l       *ABS*	00000000 TCR_PAYLOAD
00020000 l       *ABS*	00000000 RSR_PAYLOAD
00020000 l       *ABS*	00000000 TCR_MC_P
00420000 l       *ABS*	00000000 TCR_P2P_P
00820000 l       *ABS*	00000000 TCR_NN_P
00a20000 l       *ABS*	00000000 TCR_NND_P
00c20000 l       *ABS*	00000000 TCR_FR_P
00000000 l       *ABS*	00000000 PHY_CONTROL
00000001 l       *ABS*	00000000 PHY_STATUS
00000002 l       *ABS*	00000000 PHY_ID1
00000003 l       *ABS*	00000000 PHY_ID2
00000004 l       *ABS*	00000000 PHY_AUTO_ADV
00000005 l       *ABS*	00000000 PHY_AUTO_LPA
00000006 l       *ABS*	00000000 PHY_AUTO_EXP
00000010 l       *ABS*	00000000 PHY_SI_REV
00000011 l       *ABS*	00000000 PHY_MODE_CSR
00000012 l       *ABS*	00000000 PHY_SP_MODE
0000001a l       *ABS*	00000000 PHY_ERR_COUNT
0000001b l       *ABS*	00000000 PHY_SP_CSIR
0000001d l       *ABS*	00000000 PHY_INT_SRC
0000001e l       *ABS*	00000000 PHY_INT_MASK
0000001f l       *ABS*	00000000 PHY_SP_CSR
00000010 l       *ABS*	00000000 MODE_USER
00000011 l       *ABS*	00000000 MODE_FIQ
00000012 l       *ABS*	00000000 MODE_IRQ
00000013 l       *ABS*	00000000 MODE_SVC
00000017 l       *ABS*	00000000 MODE_ABT
0000001b l       *ABS*	00000000 MODE_UND
0000001f l       *ABS*	00000000 MODE_SYS
00000020 l       *ABS*	00000000 THUMB_BIT
00000080 l       *ABS*	00000000 IMASK_IRQ
00000040 l       *ABS*	00000000 IMASK_FIQ
000000c0 l       *ABS*	00000000 IMASK_ALL
00410000 l       *ABS*	00000000 IRQ_STACK
00000100 l       *ABS*	00000000 IRQ_SIZE
0040ff00 l       *ABS*	00000000 FIQ_STACK
00000100 l       *ABS*	00000000 FIQ_SIZE
0040fe00 l       *ABS*	00000000 SVC_STACK
00000014 l       *ABS*	00000000 MAX_CPUS
00000100 l       *ABS*	00000000 BUF_SIZE
00000000 l       *ABS*	00000000 NULL
00000000 l       *ABS*	00000000 MONITOR_CPU
ffff4000 l       *ABS*	00000000 ROM_IMAGE1
80000000 l       *ABS*	00000000 BIT_31
40000000 l       *ABS*	00000000 BIT_30
20000000 l       *ABS*	00000000 BIT_29
00000001 l       *ABS*	00000000 BIT_0
deaddead l       *ABS*	00000000 DEAD_WORD
00000000 l       *ABS*	00000000 SW_UNKNOWN
00000001 l       *ABS*	00000000 SW_SCAMP
ffffffff l       *ABS*	00000000 APLX_END
00000001 l       *ABS*	00000000 APLX_ACOPY
00000002 l       *ABS*	00000000 APLX_RCOPY
00000003 l       *ABS*	00000000 APLX_FILL
00000004 l       *ABS*	00000000 APLX_EXEC
00000010 l       *ABS*	00000000 APLX_SIZE
00000000 l       *ABS*	00000000 P2P_TYPE_SDP
01000000 l       *ABS*	00000000 P2P_CTRL
09000000 l       *ABS*	00000000 P2P_OPEN_REQ
01000000 l       *ABS*	00000000 P2P_OPEN_ACK
03000000 l       *ABS*	00000000 P2P_DATA_ACK
05000000 l       *ABS*	00000000 P2P_CLOSE_REQ
07000000 l       *ABS*	00000000 P2P_CLOSE_ACK
00000004 l       *ABS*	00000000 P2P_DEF_SQL
00000000 l       *ABS*	00000000 CMD_VER
00000001 l       *ABS*	00000000 CMD_RUN
00000002 l       *ABS*	00000000 CMD_READ
00000003 l       *ABS*	00000000 CMD_WRITE
00000004 l       *ABS*	00000000 CMD_APLX
0000000f l       *ABS*	00000000 CMD_AP_MAX
00000010 l       *ABS*	00000000 CMD_LINK_PROBE
00000011 l       *ABS*	00000000 CMD_LINK_READ
00000012 l       *ABS*	00000000 CMD_LINK_WRITE
00000013 l       *ABS*	00000000 CMD_xxx_19
00000014 l       *ABS*	00000000 CMD_NNP
00000015 l       *ABS*	00000000 CMD_P2PC
00000016 l       *ABS*	00000000 CMD_PING
00000017 l       *ABS*	00000000 CMD_FFD
00000018 l       *ABS*	00000000 CMD_AS
00000019 l       *ABS*	00000000 CMD_LED
0000001a l       *ABS*	00000000 CMD_IPTAG
0000001b l       *ABS*	00000000 CMD_SROM
00000040 l       *ABS*	00000000 CMD_TUBE
00000080 l       *ABS*	00000000 RC_OK
00000081 l       *ABS*	00000000 RC_LEN
00000082 l       *ABS*	00000000 RC_SUM
00000083 l       *ABS*	00000000 RC_CMD
00000084 l       *ABS*	00000000 RC_ARG
00000085 l       *ABS*	00000000 RC_PORT
00000086 l       *ABS*	00000000 RC_TIMEOUT
00000087 l       *ABS*	00000000 RC_ROUTE
00000088 l       *ABS*	00000000 RC_CPU
00000089 l       *ABS*	00000000 RC_DEAD
0000008a l       *ABS*	00000000 RC_BUF
0000008b l       *ABS*	00000000 RC_P2P_NOREPLY
0000008c l       *ABS*	00000000 RC_P2P_REJECT
0000008d l       *ABS*	00000000 RC_P2P_BUSY
0000008e l       *ABS*	00000000 RC_P2P_TIMEOUT
0000008f l       *ABS*	00000000 RC_PKT_TX
00000000 l       *ABS*	00000000 TYPE_BYTE
00000001 l       *ABS*	00000000 TYPE_HALF
00000002 l       *ABS*	00000000 TYPE_WORD
00000000 l       *ABS*	00000000 IPTAG_NEW
00000001 l       *ABS*	00000000 IPTAG_SET
00000002 l       *ABS*	00000000 IPTAG_GET
00000003 l       *ABS*	00000000 IPTAG_CLR
00000004 l       *ABS*	00000000 IPTAG_AUTO
00000004 l       *ABS*	00000000 IPTAG_MAX
00008000 l       *ABS*	00000000 IPTAG_VALID
00004000 l       *ABS*	00000000 IPTAG_TRANS
00002000 l       *ABS*	00000000 IPTAG_ARP
000000ff l       *ABS*	00000000 TAG_NONE
00000000 l       *ABS*	00000000 TAG_HOST
00000080 l       *ABS*	00000000 SDPF_REPLY
00000040 l       *ABS*	00000000 SDPF_xxx_40
00000020 l       *ABS*	00000000 SDPF_SUM
00000010 l       *ABS*	00000000 SDPF_DP2P
00000008 l       *ABS*	00000000 SDPF_DLINK
00000007 l       *ABS*	00000000 SDPF_LMASK
00000000 l       *ABS*	00000000 LOCK_MSG
00000001 l       *ABS*	00000000 LOCK_MBOX
00000002 l       *ABS*	00000000 LOCK_ETHER
00000003 l       *ABS*	00000000 LOCK_GPIO
00000004 l       *ABS*	00000000 LOCK_API_ROOT
00000000 l       *ABS*	00000000 NN_CMD_SIG0
00000001 l       *ABS*	00000000 NN_CMD_RTRC
00000002 l       *ABS*	00000000 NN_CMD_LTPC
00000003 l       *ABS*	00000000 NN_CMD_SP_3
00000004 l       *ABS*	00000000 NN_CMD_SIG1
00000005 l       *ABS*	00000000 NN_CMD_P2PC
00000006 l       *ABS*	00000000 NN_CMD_FFS
00000007 l       *ABS*	00000000 NN_CMD_SP_7
00000008 l       *ABS*	00000000 NN_CMD_PING
00000009 l       *ABS*	00000000 NN_CMD_P2PB
0000000a l       *ABS*	00000000 NN_CMD_SDP
0000000b l       *ABS*	00000000 NN_CMD_SP_11
0000000c l       *ABS*	00000000 NN_CMD_FBS
0000000d l       *ABS*	00000000 NN_CMD_FBD
0000000e l       *ABS*	00000000 NN_CMD_FBE
0000000f l       *ABS*	00000000 NN_CMD_FFE
5a000000 l       *ABS*	00000000 NN_SDP_KEY
0000000a l       *ABS*	00000000 CLK_XTAL_MHZ
0007011e l       *ABS*	00000000 PLL_300
00070128 l       *ABS*	00000000 PLL_400
0007011a l       *ABS*	00000000 PLL_260
00070121 l       *ABS*	00000000 PLL_330
00000050 l       *ABS*	00000000 PLL_LOCK_TIME
809488a5 l       *ABS*	00000000 PLL_CLK_SEL
00000004 l       *ABS*	00000000 SERIAL_SO
00000008 l       *ABS*	00000000 SERIAL_SI
00000010 l       *ABS*	00000000 SERIAL_CLK
00000020 l       *ABS*	00000000 SERIAL_NCS
00000038 l       *ABS*	00000000 SERIAL_OE
0000003f l       *ABS*	00000000 GPIO_HW_VER
00000000 l       *ABS*	00000000 HW_VER_S2
00000008 l       *ABS*	00000000 HW_VER_S3
00000001 l       *ABS*	00000000 LED_0
80000000 l       *ABS*	00000000 SDRAM_TQ
40000000 l       *ABS*	00000000 SDRAM_DPD
20000000 l       *ABS*	00000000 SDRAM_HERE
00000001 l       *ABS*	00000000 SER_OUT_0
00000002 l       *ABS*	00000000 SER_OUT_1
00000003 l       *ABS*	00000000 SER_OUT
00000040 l       *ABS*	00000000 SER_IN_0
00000080 l       *ABS*	00000000 SER_IN_1
000000c0 l       *ABS*	00000000 SER_IN
000000c0 l       *ABS*	00000000 FAIL_RESET
000000c1 l       *ABS*	00000000 FAIL_ROMX
000000c2 l       *ABS*	00000000 FAIL_ITCM0
000000c3 l       *ABS*	00000000 FAIL_ITCM1
000000c4 l       *ABS*	00000000 FAIL_DTCM
000000c5 l       *ABS*	00000000 FAIL_TIMER
000000c6 l       *ABS*	00000000 FAIL_VIC
000000c7 l       *ABS*	00000000 FAIL_CC
000000c8 l       *ABS*	00000000 FAIL_DMA
000000c9 l       *ABS*	00000000 FAIL_MP
000000ca l       *ABS*	00000000 FAIL_LATE
000000cb l       *ABS*	00000000 FAIL_MANUF
000000cc l       *ABS*	00000000 FAIL_SLEEP
000000cf l       *ABS*	00000000 FAIL_TLM
000000a0 l       *ABS*	00000000 FAIL_VEC
00000020 l       *ABS*	00000000 SV_SSIZE
00000060 l       *ABS*	00000000 SV_USIZE
00000080 l       *ABS*	00000000 SV_ISIZE
00000020 l       *ABS*	00000000 SV_VSIZE
00000040 l       *ABS*	00000000 SV_PSIZE
00000040 l       *ABS*	00000000 SV_RSIZE
000000a0 l       *ABS*	00000000 SV_MSIZE
000000a0 l       *ABS*	00000000 SV_ASIZE
f5007fe0 l       *ABS*	00000000 SV_SBASE
f5007f80 l       *ABS*	00000000 SV_UBASE
f5007f00 l       *ABS*	00000000 SV_IBASE
f5007f00 l       *ABS*	00000000 SV_BASE
f5007ee0 l       *ABS*	00000000 SV_VBASE
f5007ec0 l       *ABS*	00000000 SV_PBASE
f5007e80 l       *ABS*	00000000 SV_RBASE
f5007de0 l       *ABS*	00000000 SV_ABASE
f5007d40 l       *ABS*	00000000 SV_MBASE
f5007fe0 l       *ABS*	00000000 SROM_FLAG_BASE
f5007f80 l       *ABS*	00000000 STATUS_MAP_BASE
f5007ee0 l       *ABS*	00000000 RST_BLOCK_BASE
00008000 l       *ABS*	00000000 SRF_PRESENT
000000f0 l       *ABS*	00000000 SRF_HW_VER
00000008 l       *ABS*	00000000 SRF_PHY_INIT
00000004 l       *ABS*	00000000 SRF_PHY_RST
00000002 l       *ABS*	00000000 SRF_HI_LED
00000001 l       *ABS*	00000000 SRF_ETH
00000000 l       *ABS*	00000000 SRF_NONE
00000010 l       *ABS*	00000000 RTE_RESET
00000011 l       *ABS*	00000000 RTE_UNDEF
00000012 l       *ABS*	00000000 RTE_SVC
00000013 l       *ABS*	00000000 RTE_PABT
00000014 l       *ABS*	00000000 RTE_DABT
00000015 l       *ABS*	00000000 RTE_ADDR
00000016 l       *ABS*	00000000 RTE_IRQ
00000017 l       *ABS*	00000000 RTE_FIQ
00000000 l       APLX	00000000 aplx_table
00000020 l       RO_DATA	00000000 reset_vec
00000024 l       RO_DATA	00000000 undef_vec
00000028 l       RO_DATA	00000000 svc_vec
0000002c l       RO_DATA	00000000 pabt_vec
00000030 l       RO_DATA	00000000 dabt_vec
00000034 l       RO_DATA	00000000 addr_vec
0000003c l       RO_DATA	00000000 fiq_vec
00000040 l       RO_DATA	00000000 reset_han
00000088 l       RO_DATA	00000000 undef_err
000000c0 l       RO_DATA	00000000 svc_han
00000098 l       RO_DATA	00000000 pabt_err
000000a0 l       RO_DATA	00000000 dabt_err
000000a8 l       RO_DATA	00000000 addr_err
00000038 l       RO_DATA	00000000 irq_vec
000000b0 l       RO_DATA	00000000 irq_err
000000b8 l       RO_DATA	00000000 fiq_err
00001000 l       *ABS*	00000000 RTS_STACK
0040f000 l       *ABS*	00000000 C_STACK
00000080 l       RO_DATA	00000000 reset_err
00000090 l       RO_DATA	00000000 svc_err
000000e4 l       RO_DATA	00000000 svc_tube
000000e8 l       RO_DATA	00000000 svc_exit
00000184 l       RO_DATA	00000000 wc2
0000016c l       RO_DATA	00000000 wc1
00000260 l       RO_DATA	00000000 aplx_loader
00000248 l       RO_DATA	00000000 ap0
00000278 l       RO_DATA	00000000 aplx_copy
00000274 l       RO_DATA	00000000 aplx_rcopy
00000286 l       RO_DATA	00000000 aplx_fill
00000296 l       RO_DATA	00000000 aplx_exec
0000028c l       RO_DATA	00000000 ap1
00000000 l    df *ABS*	00000000 sark.c
000002b0 l     F RO_DATA	0000001c lock_get
000002cc l     F RO_DATA	00000014 lock_free
000002e0 l     F RO_DATA	0000004c shm_msg_free
00402ad8 l     O ZI_DATA	00000004 msg_root
00402adc l     O ZI_DATA	00000004 msg_count
00402ae0 l     O ZI_DATA	00000004 msg_max
00402ae4 l     O ZI_DATA	00000490 msg_bufs
00402f74 l     O ZI_DATA	00000004 tube_msg
00000000 l    df *ABS*	00000000 spin1_isr.c
00400000 l     O RW_DATA	00000004 prng_seed
00402f78 l     O ZI_DATA	00000004 prng_seed_ext
00000000 l    df *ABS*	00000000 spin1_api.c
00400008 l     O RW_DATA	00000004 ncores
0040000c l     O RW_DATA	00000004 nchips
00400010 l     O RW_DATA	00000004 dma_id
00400014 l     O RW_DATA	00000004 current_addr
00402f80 l     O ZI_DATA	00000004 timer_tick
00402f84 l     O ZI_DATA	00000001 rootAp
00402f88 l     O ZI_DATA	00000004 my_chip
00402f8c l     O ZI_DATA	00000001 rootChip
00402f8e l     O ZI_DATA	00000002 rootAddr
00402f90 l     O ZI_DATA	00000004 my_ncores
00402f94 l     O ZI_DATA	00000004 warnings
00402f98 l     O ZI_DATA	00000004 fullq
00402f9c l     O ZI_DATA	00000004 dfull
00402fa0 l     O ZI_DATA	00000004 pfull
00402fa8 l     O ZI_DATA	00000004 run
00402fac l     O ZI_DATA	00000320 task_queue
00000000 l    df *ABS*	00000000 spinn_io.c
000031e4 l     O RO_DATA	00000011 hex
004032d8 l     O ZI_DATA	00000004 sp_ptr
00000000 l    df *ABS*	00000000 main.c
00001890 g     F RO_DATA	0000065c spin1_start
004032cc g     O ZI_DATA	00000004 barrier_rdygo
00400018 g     O ZI_DATA	00000004 barrier_rdy1_cnt
00001f5c g     F RO_DATA	00000010 spin1_get_core_id
00000040 g       *ABS*	00000000 RO_FROM
00000240 g     F RO_DATA	00000000 proc_aplx
000003b0 g     F RO_DATA	00000034 spin1_msg_free
00000f24 g     F RO_DATA	00000078 spin1_callback_on
000022d8 g     F RO_DATA	00000050 spin1_trigger_user_event
00002d94 g     O RO_DATA	00000008 S3_LEDS
0040001c g     O ZI_DATA	00000004 barrier_rdy2_cnt
00001680 g     F RO_DATA	00000024 spin1_memcpy
00002d8c g     O RO_DATA	00000008 S2_LEDS
000013b4 g     F RO_DATA	00000088 clean_up
00000c08 g     F RO_DATA	00000024 dma_error_isr
00000cc4 g     F RO_DATA	00000060 timer1_isr
00000d24 g     F RO_DATA	00000068 soft_int_isr
00001740 g     F RO_DATA	00000150 spin1_send_mc_packet
00000eec g     F RO_DATA	00000038 spin1_rand
00003478 g     F RO_DATA	00000230 c_main
00000140 g     F RO_DATA	00000000 bx
00002328 g     F RO_DATA	0000025c rts_init
000028dc g     F RO_DATA	000000c8 io_put_hex
00001f04 g     F RO_DATA	00000010 irq_enable
000003e4 g     F RO_DATA	000000f0 sark_setup
000031fc g     F RO_DATA	000000c4 timer_callback
00001efc g     F RO_DATA	00000008 spin1_mode_restore
00001eec g     F RO_DATA	00000010 spin1_irq_disable
00002210 g     F RO_DATA	000000c8 spin1_schedule_callback
00000db4 g     F RO_DATA	00000084 dma_done_fiqsr
00000fec g     F RO_DATA	000003c8 spin1_set_core_map
00400000 g       *ABS*	00000000 RW_TO
00400020 g     O ZI_DATA	00000004 def_fiq_isr
00400024 g     O ZI_DATA	0000002c diagnostics
0000032c g     F RO_DATA	00000030 sark_error
004032dc g       *ABS*	00000000 HEAP_BASE
0000020c g     F RO_DATA	00000000 svc_put_char
000029a4 g     F RO_DATA	00000184 io_put_fixed
00400050 g     O ZI_DATA	00000004 phys_cpu
00001728 g     F RO_DATA	00000018 send_mc_packet_fulfil
00400054 g     O ZI_DATA	00000004 user_arg1
00000214 g     F RO_DATA	00000000 schedule
00001f14 g     F RO_DATA	00000008 wait_for_irq
00400058 g     O ZI_DATA	00000004 virt_cpu
00002584 g     F RO_DATA	0000006c rts_cleanup
00000b68 g     F RO_DATA	000000a0 cc_tx_empty_isr
00000a78 g     F RO_DATA	000000c8 barrier_packet_handler
0040029c g     O ZI_DATA	00000020 app_data
00000d8c g     F RO_DATA	00000028 cc_rx_ready_fiqsr
004032d0 g     O ZI_DATA	00000004 barrier_go
00001f6c g     F RO_DATA	00000010 spin1_get_chip_id
004032d4 g     O ZI_DATA	00000001 user_pending
00001704 g     F RO_DATA	00000024 spin1_flush_tx_packet_queue
000020bc g     F RO_DATA	00000038 spin1_kill
00000fcc g     F RO_DATA	00000010 spin1_get_simulation_time
00003754 g       *ABS*	00000000 RW_FROM
000004d4 g     F RO_DATA	00000154 spin1_send_sdp_msg
000026b8 g     F RO_DATA	00000104 io_put_int
00001f3c g     F RO_DATA	00000020 spin1_get_id
00400000 g       *ABS*	00000000 DTCM_BASE
0000263c g     F RO_DATA	0000007c io_put_str
00402fa4 g     O ZI_DATA	00000004 exit_val
00001f1c g     F RO_DATA	00000010 spin1_fiq_disable
00001588 g     F RO_DATA	00000024 spin1_delay_us
000000f8 g       RO_DATA	00000000 cpu_int
000027bc g     F RO_DATA	000000d8 io_put_uint
00000018 g       *ABS*	00000000 RW_LENGTH
000033d8 g     F RO_DATA	000000a0 send_sdp_packet
00000e7c g     F RO_DATA	00000050 soft_int_fiqsr
00400004 g     O RW_DATA	00000004 fiq_event
004002bc g     O ZI_DATA	0000281c channel
000001c0 g     F RO_DATA	00000000 snooze
00000fdc g     F RO_DATA	00000010 spin1_set_timer_tick
00000b40 g     F RO_DATA	00000028 cc_rx_error_isr
0040005c g     O ZI_DATA	00000004 thrown
00000a20 g     F RO_DATA	00000058 cc_rx_ready_isr
000020f4 g     F RO_DATA	00000038 spin1_malloc
000001c8 g     F RO_DATA	00000000 str_cpy
0000143c g     F RO_DATA	000000a0 report_debug
00001f7c g     F RO_DATA	000000c4 spin1_set_mc_table_entry
00000000 g       *ABS*	00000000 RO_TO
00400018 g       *ABS*	00000000 ZI_TO
00002b28 g     F RO_DATA	00000254 io_printf
00400060 g     O ZI_DATA	00000148 dma_queue
00001560 g     F RO_DATA	00000028 spin1_stop
000014dc g     F RO_DATA	00000084 report_warns
00000c2c g     F RO_DATA	00000098 dma_done_isr
00402f7c g     O ZI_DATA	00000004 ticks
000015ac g     F RO_DATA	000000d4 spin1_dma_transfer
0000212c g     F RO_DATA	000000e4 schedule_sysmode
00002894 g     F RO_DATA	00000048 io_put_zhex
00000ecc g     F RO_DATA	00000020 spin1_srand
00000154 g     F RO_DATA	00000000 word_cpy
00000f9c g     F RO_DATA	00000030 spin1_callback_off
00000e38 g     F RO_DATA	00000044 timer1_fiqsr
0000035c g     F RO_DATA	00000054 spin1_msg_get
004001a8 g     O ZI_DATA	00000004 user_arg0
000001a8 g     F RO_DATA	00000000 cpu_int_off
000016a4 g     F RO_DATA	00000060 spin1_flush_rx_packet_queue
000032c0 g     F RO_DATA	00000118 mc_packet_callback
00000000 g       *ABS*	00000000 ITCM_BASE
00000628 g     F RO_DATA	00000060 svc_putc
004001ac g     O ZI_DATA	00000028 callback
00002040 g     F RO_DATA	0000007c spin1_led_control
000001b8 g     F RO_DATA	00000000 cpu_mode_set
000000f4 g       RO_DATA	00000000 null_int
000025f0 g     F RO_DATA	0000004c io_put_char
000001dc g     F RO_DATA	00000000 div10
00001f2c g     F RO_DATA	00000010 spin1_int_disable
00003724 g       *ABS*	00000000 RO_LENGTH
000032c4 g       *ABS*	00000000 ZI_LENGTH
00000688 g     F RO_DATA	00000398 cpu_int_c
00000144 g     F RO_DATA	00000000 copy_msg
004001d4 g     O ZI_DATA	000000c8 tx_packet_queue



Disassembly of section APLX:

00000000 <aplx_table>:
   0:	00000002 	.word	0x00000002
   4:	00000000 	.word	0x00000000
   8:	00000040 	.word	0x00000040
   c:	00003724 	.word	0x00003724
  10:	00000002 	.word	0x00000002
  14:	00400000 	.word	0x00400000
  18:	00003754 	.word	0x00003754
  1c:	00000018 	.word	0x00000018
  20:	00000003 	.word	0x00000003
  24:	00400018 	.word	0x00400018
  28:	000032c4 	.word	0x000032c4
  2c:	00000000 	.word	0x00000000
  30:	00000004 	.word	0x00000004
	...

Disassembly of section RO_DATA:

00000000 <reset_vec-0x20>:
       0:	e59ff018 	ldr	pc, [pc, #24]	; 20 <reset_vec>
       4:	e59ff018 	ldr	pc, [pc, #24]	; 24 <undef_vec>
       8:	e59ff018 	ldr	pc, [pc, #24]	; 28 <svc_vec>
       c:	e59ff018 	ldr	pc, [pc, #24]	; 2c <pabt_vec>
      10:	e59ff018 	ldr	pc, [pc, #24]	; 30 <dabt_vec>
      14:	e59ff018 	ldr	pc, [pc, #24]	; 34 <addr_vec>
      18:	e51ffff0 	ldr	pc, [pc, #-4080]	; fffff030 <ROM_IMAGE1+0xb030>
      1c:	e59ff018 	ldr	pc, [pc, #24]	; 3c <fiq_vec>

00000020 <reset_vec>:
      20:	00000040 	.word	0x00000040

00000024 <undef_vec>:
      24:	00000088 	.word	0x00000088

00000028 <svc_vec>:
      28:	000000c0 	.word	0x000000c0

0000002c <pabt_vec>:
      2c:	00000098 	.word	0x00000098

00000030 <dabt_vec>:
      30:	000000a0 	.word	0x000000a0

00000034 <addr_vec>:
      34:	000000a8 	.word	0x000000a8

00000038 <irq_vec>:
      38:	000000b0 	.word	0x000000b0

0000003c <fiq_vec>:
      3c:	000000b8 	.word	0x000000b8

00000040 <reset_han>:
      40:	e321f0d2 	msr	CPSR_c, #210	; 0xd2
      44:	e3a0d841 	mov	sp, #4259840	; 0x410000
      48:	e321f0d1 	msr	CPSR_c, #209	; 0xd1
      4c:	e59fd0dc 	ldr	sp, [pc, #220]	; 130 <MC_QOS12>
      50:	e321f0d3 	msr	CPSR_c, #211	; 0xd3
      54:	e59fd0d8 	ldr	sp, [pc, #216]	; 134 <MC_QOS13>
      58:	e321f0df 	msr	CPSR_c, #223	; 0xdf
      5c:	e59fd0d4 	ldr	sp, [pc, #212]	; 138 <MC_QOS14>
      60:	e28f0018 	add	r0, pc, #24
      64:	e24f104c 	sub	r1, pc, #76	; 0x4c
      68:	e5810000 	str	r0, [r1]
      6c:	eb0000dc 	bl	3e4 <sark_setup>
      70:	eb0008ac 	bl	2328 <rts_init>
      74:	eb000cff 	bl	3478 <c_main>
      78:	eb000941 	bl	2584 <rts_cleanup>
      7c:	ea00004f 	b	1c0 <snooze>

00000080 <reset_err>:
      80:	e3a00010 	mov	r0, #16
      84:	ea0000a8 	b	32c <sark_error>

00000088 <undef_err>:
      88:	e3a00011 	mov	r0, #17
      8c:	ea0000a6 	b	32c <sark_error>

00000090 <svc_err>:
      90:	e3a00012 	mov	r0, #18
      94:	ea0000a4 	b	32c <sark_error>

00000098 <pabt_err>:
      98:	e3a00013 	mov	r0, #19
      9c:	ea0000a2 	b	32c <sark_error>

000000a0 <dabt_err>:
      a0:	e3a00014 	mov	r0, #20
      a4:	ea0000a0 	b	32c <sark_error>

000000a8 <addr_err>:
      a8:	e3a00015 	mov	r0, #21
      ac:	ea00009e 	b	32c <sark_error>

000000b0 <irq_err>:
      b0:	e3a00016 	mov	r0, #22
      b4:	ea00009c 	b	32c <sark_error>

000000b8 <fiq_err>:
      b8:	e3a00017 	mov	r0, #23
      bc:	ea00009a 	b	32c <sark_error>

000000c0 <svc_han>:
      c0:	e92d500c 	push	{r2, r3, ip, lr}
      c4:	e14fc000 	mrs	ip, SPSR
      c8:	e92d1002 	push	{r1, ip}
      cc:	e31c0020 	tst	ip, #32
      d0:	151ec002 	ldrne	ip, [lr, #-2]
      d4:	051ec004 	ldreq	ip, [lr, #-4]
      d8:	e21cc0ff 	ands	ip, ip, #255	; 0xff
      dc:	0a000000 	beq	e4 <svc_tube>
      e0:	eaffffea 	b	90 <svc_err>

000000e4 <svc_tube>:
      e4:	eb00014f 	bl	628 <svc_putc>

000000e8 <svc_exit>:
      e8:	e8bd1002 	pop	{r1, ip}
      ec:	e16ff00c 	msr	SPSR_fsxc, ip
      f0:	e8fd900c 	ldm	sp!, {r2, r3, ip, pc}^

000000f4 <null_int>:
      f4:	e25ef004 	subs	pc, lr, #4

000000f8 <cpu_int>:
      f8:	e24ee004 	sub	lr, lr, #4
      fc:	e92d4001 	push	{r0, lr}
     100:	e14fe000 	mrs	lr, SPSR
     104:	e92d5000 	push	{ip, lr}
     108:	e321f01f 	msr	CPSR_c, #31
     10c:	e92d400e 	push	{r1, r2, r3, lr}
     110:	eb00015c 	bl	688 <cpu_int_c>
     114:	e8bd400e 	pop	{r1, r2, r3, lr}
     118:	e321f092 	msr	CPSR_c, #146	; 0x92
     11c:	e3a0c41f 	mov	ip, #520093696	; 0x1f000000
     120:	e58cc030 	str	ip, [ip, #48]	; 0x30
     124:	e8bd5000 	pop	{ip, lr}
     128:	e16ff00e 	msr	SPSR_fsxc, lr
     12c:	e8fd8001 	ldm	sp!, {r0, pc}^
     130:	0040ff00 	.word	0x0040ff00
     134:	0040fe00 	.word	0x0040fe00
     138:	0040f000 	.word	0x0040f000
     13c:	00000000 	.word	0x00000000

00000140 <bx>:
     140:	e12fff10 	bx	r0

00000144 <copy_msg>:
     144:	e1d120b4 	ldrh	r2, [r1, #4]
     148:	e2800004 	add	r0, r0, #4
     14c:	e2811004 	add	r1, r1, #4
     150:	e2822004 	add	r2, r2, #4

00000154 <word_cpy>:
     154:	e3120003 	tst	r2, #3
     158:	13c22003 	bicne	r2, r2, #3
     15c:	12822004 	addne	r2, r2, #4
     160:	e92d4010 	push	{r4, lr}
     164:	e2522020 	subs	r2, r2, #32
     168:	3a000005 	bcc	184 <wc2>

0000016c <wc1>:
     16c:	e8b15018 	ldm	r1!, {r3, r4, ip, lr}
     170:	e8a05018 	stmia	r0!, {r3, r4, ip, lr}
     174:	e8b15018 	ldm	r1!, {r3, r4, ip, lr}
     178:	e8a05018 	stmia	r0!, {r3, r4, ip, lr}
     17c:	e2522020 	subs	r2, r2, #32
     180:	2afffff9 	bcs	16c <wc1>

00000184 <wc2>:
     184:	e1b0ce02 	lsls	ip, r2, #28
     188:	28b15018 	ldmcs	r1!, {r3, r4, ip, lr}
     18c:	28a05018 	stmiacs	r0!, {r3, r4, ip, lr}
     190:	48b10018 	ldmmi	r1!, {r3, r4}
     194:	48a00018 	stmiami	r0!, {r3, r4}
     198:	e1b0cf02 	lsls	ip, r2, #30
     19c:	24913004 	ldrcs	r3, [r1], #4
     1a0:	24803004 	strcs	r3, [r0], #4
     1a4:	e8bd8010 	pop	{r4, pc}

000001a8 <cpu_int_off>:
     1a8:	e10f0000 	mrs	r0, CPSR
     1ac:	e38010c0 	orr	r1, r0, #192	; 0xc0
     1b0:	e121f001 	msr	CPSR_c, r1
     1b4:	e12fff1e 	bx	lr

000001b8 <cpu_mode_set>:
     1b8:	e121f000 	msr	CPSR_c, r0
     1bc:	e12fff1e 	bx	lr

000001c0 <snooze>:
     1c0:	ee070f90 	mcr	15, 0, r0, cr7, cr0, {4}
     1c4:	eafffffd 	b	1c0 <snooze>

000001c8 <str_cpy>:
     1c8:	e4d12001 	ldrb	r2, [r1], #1
     1cc:	e3520000 	cmp	r2, #0
     1d0:	e4c02001 	strb	r2, [r0], #1
     1d4:	1afffffb 	bne	1c8 <str_cpy>
     1d8:	e12fff1e 	bx	lr

000001dc <div10>:
     1dc:	e241200a 	sub	r2, r1, #10
     1e0:	e0411121 	sub	r1, r1, r1, lsr #2
     1e4:	e0811221 	add	r1, r1, r1, lsr #4
     1e8:	e0811421 	add	r1, r1, r1, lsr #8
     1ec:	e0811821 	add	r1, r1, r1, lsr #16
     1f0:	e1a011a1 	lsr	r1, r1, #3
     1f4:	e0813101 	add	r3, r1, r1, lsl #2
     1f8:	e0522083 	subs	r2, r2, r3, lsl #1
     1fc:	52811001 	addpl	r1, r1, #1
     200:	4282200a 	addmi	r2, r2, #10
     204:	e8800006 	stm	r0, {r1, r2}
     208:	e12fff1e 	bx	lr

0000020c <svc_put_char>:
     20c:	ef000000 	svc	0x00000000
     210:	e12fff1e 	bx	lr

00000214 <schedule>:
     214:	e92d5000 	push	{ip, lr}
     218:	e10fc000 	mrs	ip, CPSR
     21c:	e3cce01f 	bic	lr, ip, #31
     220:	e38ee01f 	orr	lr, lr, #31
     224:	e121f00e 	msr	CPSR_c, lr
     228:	e92d5000 	push	{ip, lr}
     22c:	eb0007be 	bl	212c <schedule_sysmode>
     230:	e8bd5000 	pop	{ip, lr}
     234:	e121f00c 	msr	CPSR_c, ip
     238:	e8bd5000 	pop	{ip, lr}
     23c:	e12fff1e 	bx	lr

00000240 <proc_aplx>:
     240:	b5f0      	push	{r4, r5, r6, r7, lr}
     242:	4917      	ldr	r1, [pc, #92]	; (2a0 <aplx_exec+0xa>)
     244:	a206      	add	r2, pc, #24	; (adr r2, 260 <aplx_loader>)
     246:	2304      	movs	r3, #4

00000248 <ap0>:
     248:	caf0      	ldmia	r2!, {r4, r5, r6, r7}
     24a:	c1f0      	stmia	r1!, {r4, r5, r6, r7}
     24c:	3b01      	subs	r3, #1
     24e:	d1fb      	bne.n	248 <ap0>
     250:	393f      	subs	r1, #63	; 0x3f
     252:	4708      	bx	r1
	...

00000260 <aplx_loader>:
     260:	c81e      	ldmia	r0!, {r1, r2, r3, r4}
     262:	2901      	cmp	r1, #1
     264:	d008      	beq.n	278 <aplx_copy>
     266:	2902      	cmp	r1, #2
     268:	d004      	beq.n	274 <aplx_rcopy>
     26a:	2903      	cmp	r1, #3
     26c:	d00b      	beq.n	286 <aplx_fill>
     26e:	2904      	cmp	r1, #4
     270:	d011      	beq.n	296 <aplx_exec>
     272:	bdf0      	pop	{r4, r5, r6, r7, pc}

00000274 <aplx_rcopy>:
     274:	181b      	adds	r3, r3, r0
     276:	3b10      	subs	r3, #16

00000278 <aplx_copy>:
     278:	cbe2      	ldmia	r3!, {r1, r5, r6, r7}
     27a:	c2e2      	stmia	r2!, {r1, r5, r6, r7}
     27c:	cbe2      	ldmia	r3!, {r1, r5, r6, r7}
     27e:	c2e2      	stmia	r2!, {r1, r5, r6, r7}
     280:	3c20      	subs	r4, #32
     282:	d8f9      	bhi.n	278 <aplx_copy>
     284:	e7ec      	b.n	260 <aplx_loader>

00000286 <aplx_fill>:
     286:	1c25      	adds	r5, r4, #0
     288:	1c26      	adds	r6, r4, #0
     28a:	1c27      	adds	r7, r4, #0

0000028c <ap1>:
     28c:	c2f0      	stmia	r2!, {r4, r5, r6, r7}
     28e:	c2f0      	stmia	r2!, {r4, r5, r6, r7}
     290:	3b20      	subs	r3, #32
     292:	d8fb      	bhi.n	28c <ap1>
     294:	e7e4      	b.n	260 <aplx_loader>

00000296 <aplx_exec>:
     296:	4790      	blx	r2
     298:	e7e2      	b.n	260 <aplx_loader>
     29a:	0000      	movs	r0, r0
     29c:	0000      	movs	r0, r0
     29e:	0000      	movs	r0, r0
     2a0:	00007fc0 	.word	0x00007fc0
	...

000002b0 <lock_get>:
     2b0:	e2802040 	add	r2, r0, #64	; 0x40
     2b4:	e1a02102 	lsl	r2, r2, #2
     2b8:	e28224f2 	add	r2, r2, #-234881024	; 0xf2000000
     2bc:	e5923000 	ldr	r3, [r2]
     2c0:	e3530000 	cmp	r3, #0
     2c4:	bafffffc 	blt	2bc <lock_get+0xc>
     2c8:	e12fff1e 	bx	lr

000002cc <lock_free>:
     2cc:	e2803060 	add	r3, r0, #96	; 0x60
     2d0:	e1a03103 	lsl	r3, r3, #2
     2d4:	e28334f2 	add	r3, r3, #-234881024	; 0xf2000000
     2d8:	e5933000 	ldr	r3, [r3]
     2dc:	e12fff1e 	bx	lr

000002e0 <shm_msg_free>:
     2e0:	e92d4038 	push	{r3, r4, r5, lr}
     2e4:	e1a04000 	mov	r4, r0
     2e8:	ebffffae 	bl	1a8 <cpu_int_off>
     2ec:	e1a05000 	mov	r5, r0
     2f0:	e3a00000 	mov	r0, #0
     2f4:	ebffffed 	bl	2b0 <lock_get>
     2f8:	e59f3028 	ldr	r3, [pc, #40]	; 328 <RTR_DGC10>
     2fc:	e51320cf 	ldr	r2, [r3, #-207]	; 0xffffff31
     300:	e5842000 	str	r2, [r4]
     304:	e50340cf 	str	r4, [r3, #-207]	; 0xffffff31
     308:	e5132097 	ldr	r2, [r3, #-151]	; 0xffffff69
     30c:	e2422001 	sub	r2, r2, #1
     310:	e5032097 	str	r2, [r3, #-151]	; 0xffffff69
     314:	e3a00000 	mov	r0, #0
     318:	ebffffeb 	bl	2cc <lock_free>
     31c:	e1a00005 	mov	r0, r5
     320:	ebffffa4 	bl	1b8 <cpu_mode_set>
     324:	e8bd8038 	pop	{r3, r4, r5, pc}
     328:	f5007fff 	.word	0xf5007fff

0000032c <sark_error>:
     32c:	e92d4008 	push	{r3, lr}
     330:	e59f301c 	ldr	r3, [pc, #28]	; 354 <RTR_DGC15+0x18>
     334:	e59f201c 	ldr	r2, [pc, #28]	; 358 <RTR_DGC15+0x1c>
     338:	e5922000 	ldr	r2, [r2]
     33c:	e0832002 	add	r2, r3, r2
     340:	e54200bf 	strb	r0, [r2, #-191]	; 0xffffff41
     344:	e3a02008 	mov	r2, #8
     348:	e54320d4 	strb	r2, [r3, #-212]	; 0xffffff2c
     34c:	ebffff9b 	bl	1c0 <snooze>
     350:	e8bd8008 	pop	{r3, pc}
     354:	f5007fff 	.word	0xf5007fff
     358:	00400058 	.word	0x00400058

0000035c <spin1_msg_get>:
     35c:	e92d4010 	push	{r4, lr}
     360:	ebffff90 	bl	1a8 <cpu_int_off>
     364:	e59f3040 	ldr	r3, [pc, #64]	; 3ac <spin1_msg_get+0x50>
     368:	e5934000 	ldr	r4, [r3]
     36c:	e3540000 	cmp	r4, #0
     370:	0a00000a 	beq	3a0 <spin1_msg_get+0x44>
     374:	e5942000 	ldr	r2, [r4]
     378:	e5832000 	str	r2, [r3]
     37c:	e3a02000 	mov	r2, #0
     380:	e5842000 	str	r2, [r4]
     384:	e5932004 	ldr	r2, [r3, #4]
     388:	e2822001 	add	r2, r2, #1
     38c:	e5832004 	str	r2, [r3, #4]
     390:	e5933008 	ldr	r3, [r3, #8]
     394:	e1520003 	cmp	r2, r3
     398:	859f300c 	ldrhi	r3, [pc, #12]	; 3ac <spin1_msg_get+0x50>
     39c:	85832008 	strhi	r2, [r3, #8]
     3a0:	ebffff84 	bl	1b8 <cpu_mode_set>
     3a4:	e1a00004 	mov	r0, r4
     3a8:	e8bd8010 	pop	{r4, pc}
     3ac:	00402ad8 	.word	0x00402ad8

000003b0 <spin1_msg_free>:
     3b0:	e92d4010 	push	{r4, lr}
     3b4:	e1a04000 	mov	r4, r0
     3b8:	ebffff7a 	bl	1a8 <cpu_int_off>
     3bc:	e59f301c 	ldr	r3, [pc, #28]	; 3e0 <spin1_msg_free+0x30>
     3c0:	e5932000 	ldr	r2, [r3]
     3c4:	e5842000 	str	r2, [r4]
     3c8:	e5834000 	str	r4, [r3]
     3cc:	e5932004 	ldr	r2, [r3, #4]
     3d0:	e2422001 	sub	r2, r2, #1
     3d4:	e5832004 	str	r2, [r3, #4]
     3d8:	ebffff76 	bl	1b8 <cpu_mode_set>
     3dc:	e8bd8010 	pop	{r4, pc}
     3e0:	00402ad8 	.word	0x00402ad8

000003e4 <sark_setup>:
     3e4:	e92d40f8 	push	{r3, r4, r5, r6, r7, lr}
     3e8:	e3a03203 	mov	r3, #805306368	; 0x30000000
     3ec:	e5933014 	ldr	r3, [r3, #20]
     3f0:	e1a03c23 	lsr	r3, r3, #24
     3f4:	e59f20c0 	ldr	r2, [pc, #192]	; 4bc <MC_TABLE_SIZE+0xbc>
     3f8:	e5823000 	str	r3, [r2]
     3fc:	e59f70bc 	ldr	r7, [pc, #188]	; 4c0 <MC_TABLE_SIZE+0xc0>
     400:	e59f50bc 	ldr	r5, [pc, #188]	; 4c4 <MC_TABLE_SIZE+0xc4>
     404:	e0853003 	add	r3, r5, r3
     408:	e553306b 	ldrb	r3, [r3, #-107]	; 0xffffff95
     40c:	e5873000 	str	r3, [r7]
     410:	e59f40b0 	ldr	r4, [pc, #176]	; 4c8 <MC_TABLE_SIZE+0xc8>
     414:	e284200c 	add	r2, r4, #12
     418:	e1a03004 	mov	r3, r4
     41c:	e4832130 	str	r2, [r3], #304	; 0x130
     420:	e584300c 	str	r3, [r4, #12]
     424:	e2843f95 	add	r3, r4, #596	; 0x254
     428:	e5843130 	str	r3, [r4, #304]	; 0x130
     42c:	e2843fde 	add	r3, r4, #888	; 0x378
     430:	e5843254 	str	r3, [r4, #596]	; 0x254
     434:	e3a06000 	mov	r6, #0
     438:	e5846378 	str	r6, [r4, #888]	; 0x378
     43c:	ebffffc6 	bl	35c <spin1_msg_get>
     440:	e584049c 	str	r0, [r4, #1180]	; 0x49c
     444:	e3a03007 	mov	r3, #7
     448:	e5c03008 	strb	r3, [r0, #8]
     44c:	e5c06009 	strb	r6, [r0, #9]
     450:	e3e02000 	mvn	r2, #0
     454:	e5c0200a 	strb	r2, [r0, #10]
     458:	e1553fbb 	ldrh	r3, [r5, #-251]	; 0xffffff05
     45c:	e1c030bc 	strh	r3, [r0, #12]
     460:	e5973000 	ldr	r3, [r7]
     464:	e5c0300b 	strb	r3, [r0, #11]
     468:	e1555fbf 	ldrh	r5, [r5, #-255]	; 0xffffff01
     46c:	e1c050be 	strh	r5, [r0, #14]
     470:	e3a03040 	mov	r3, #64	; 0x40
     474:	e1c031b0 	strh	r3, [r0, #16]
     478:	e3a0300c 	mov	r3, #12
     47c:	e1c030b4 	strh	r3, [r0, #4]
     480:	e3a0341f 	mov	r3, #520093696	; 0x1f000000
     484:	e5833030 	str	r3, [r3, #48]	; 0x30
     488:	e583600c 	str	r6, [r3, #12]
     48c:	e5832014 	str	r2, [r3, #20]
     490:	e59f2034 	ldr	r2, [pc, #52]	; 4cc <MC_TABLE_SIZE+0xcc>
     494:	e5832034 	str	r2, [r3, #52]	; 0x34
     498:	e59f2030 	ldr	r2, [pc, #48]	; 4d0 <MC_TABLE_SIZE+0xd0>
     49c:	e5832100 	str	r2, [r3, #256]	; 0x100
     4a0:	e3a02032 	mov	r2, #50	; 0x32
     4a4:	e5832200 	str	r2, [r3, #512]	; 0x200
     4a8:	e3a02701 	mov	r2, #262144	; 0x40000
     4ac:	e5832010 	str	r2, [r3, #16]
     4b0:	e3a0001f 	mov	r0, #31
     4b4:	ebffff3f 	bl	1b8 <cpu_mode_set>
     4b8:	e8bd80f8 	pop	{r3, r4, r5, r6, r7, pc}
     4bc:	00400050 	.word	0x00400050
     4c0:	00400058 	.word	0x00400058
     4c4:	f5007fff 	.word	0xf5007fff
     4c8:	00402ad8 	.word	0x00402ad8
     4cc:	000000f4 	.word	0x000000f4
     4d0:	000000f8 	.word	0x000000f8

000004d4 <spin1_send_sdp_msg>:
     4d4:	e92d47f0 	push	{r4, r5, r6, r7, r8, r9, sl, lr}
     4d8:	e1a0a000 	mov	sl, r0
     4dc:	e1a06001 	mov	r6, r1
     4e0:	e59f3130 	ldr	r3, [pc, #304]	; 618 <ETH_TX_SIZE+0x18>
     4e4:	e5937000 	ldr	r7, [r3]
     4e8:	e59f812c 	ldr	r8, [pc, #300]	; 61c <ETH_TX_SIZE+0x1c>
     4ec:	e0884187 	add	r4, r8, r7, lsl #3
     4f0:	e5d43001 	ldrb	r3, [r4, #1]
     4f4:	e35300ff 	cmp	r3, #255	; 0xff
     4f8:	03a00000 	moveq	r0, #0
     4fc:	08bd87f0 	popeq	{r4, r5, r6, r7, r8, r9, sl, pc}
     500:	ebffff28 	bl	1a8 <cpu_int_off>
     504:	e1a09000 	mov	r9, r0
     508:	e3a00000 	mov	r0, #0
     50c:	ebffff67 	bl	2b0 <lock_get>
     510:	e59f3108 	ldr	r3, [pc, #264]	; 620 <ETH_TX_SIZE+0x20>
     514:	e51350cf 	ldr	r5, [r3, #-207]	; 0xffffff31
     518:	e3550000 	cmp	r5, #0
     51c:	0a000025 	beq	5b8 <spin1_send_sdp_msg+0xe4>
     520:	e5952000 	ldr	r2, [r5]
     524:	e50320cf 	str	r2, [r3, #-207]	; 0xffffff31
     528:	e3a02000 	mov	r2, #0
     52c:	e5852000 	str	r2, [r5]
     530:	e5132097 	ldr	r2, [r3, #-151]	; 0xffffff69
     534:	e2822001 	add	r2, r2, #1
     538:	e5032097 	str	r2, [r3, #-151]	; 0xffffff69
     53c:	e5133093 	ldr	r3, [r3, #-147]	; 0xffffff6d
     540:	e1520003 	cmp	r2, r3
     544:	859f30d4 	ldrhi	r3, [pc, #212]	; 620 <ETH_TX_SIZE+0x20>
     548:	85032093 	strhi	r2, [r3, #-147]	; 0xffffff6d
     54c:	e3a00000 	mov	r0, #0
     550:	ebffff5d 	bl	2cc <lock_free>
     554:	e1a00009 	mov	r0, r9
     558:	ebffff16 	bl	1b8 <cpu_mode_set>
     55c:	e1a00005 	mov	r0, r5
     560:	e1a0100a 	mov	r1, sl
     564:	ebfffef6 	bl	144 <copy_msg>
     568:	e5845004 	str	r5, [r4, #4]
     56c:	e3a0a001 	mov	sl, #1
     570:	e7c8a187 	strb	sl, [r8, r7, lsl #3]
     574:	ebffff0b 	bl	1a8 <cpu_int_off>
     578:	e1a09000 	mov	r9, r0
     57c:	e1a0000a 	mov	r0, sl
     580:	ebffff4a 	bl	2b0 <lock_get>
     584:	e59f3094 	ldr	r3, [pc, #148]	; 620 <ETH_TX_SIZE+0x20>
     588:	e59f2088 	ldr	r2, [pc, #136]	; 618 <ETH_TX_SIZE+0x18>
     58c:	e5921000 	ldr	r1, [r2]
     590:	e513209f 	ldr	r2, [r3, #-159]	; 0xffffff61
     594:	e182211a 	orr	r2, r2, sl, lsl r1
     598:	e503209f 	str	r2, [r3, #-159]	; 0xffffff61
     59c:	e1a0000a 	mov	r0, sl
     5a0:	ebffff49 	bl	2cc <lock_free>
     5a4:	e1a00009 	mov	r0, r9
     5a8:	ebffff02 	bl	1b8 <cpu_mode_set>
     5ac:	e59f2070 	ldr	r2, [pc, #112]	; 624 <ETH_TX_SIZE+0x24>
     5b0:	e5921000 	ldr	r1, [r2]
     5b4:	ea000009 	b	5e0 <spin1_send_sdp_msg+0x10c>
     5b8:	e3a00000 	mov	r0, #0
     5bc:	ebffff42 	bl	2cc <lock_free>
     5c0:	e1a00009 	mov	r0, r9
     5c4:	ebfffefb 	bl	1b8 <cpu_mode_set>
     5c8:	e3a00000 	mov	r0, #0
     5cc:	e8bd87f0 	pop	{r4, r5, r6, r7, r8, r9, sl, pc}
     5d0:	e5923000 	ldr	r3, [r2]
     5d4:	e0613003 	rsb	r3, r1, r3
     5d8:	e1530006 	cmp	r3, r6
     5dc:	8a000002 	bhi	5ec <spin1_send_sdp_msg+0x118>
     5e0:	e5d43000 	ldrb	r3, [r4]
     5e4:	e3530000 	cmp	r3, #0
     5e8:	1afffff8 	bne	5d0 <spin1_send_sdp_msg+0xfc>
     5ec:	e7d83187 	ldrb	r3, [r8, r7, lsl #3]
     5f0:	e3530000 	cmp	r3, #0
     5f4:	0a000005 	beq	610 <ETH_TX_SIZE+0x10>
     5f8:	e1a00005 	mov	r0, r5
     5fc:	ebffff37 	bl	2e0 <shm_msg_free>
     600:	e3e03000 	mvn	r3, #0
     604:	e5c43001 	strb	r3, [r4, #1]
     608:	e3a00000 	mov	r0, #0
     60c:	e8bd87f0 	pop	{r4, r5, r6, r7, r8, r9, sl, pc}
     610:	e3a00001 	mov	r0, #1
     614:	e8bd87f0 	pop	{r4, r5, r6, r7, r8, r9, sl, pc}
     618:	00400058 	.word	0x00400058
     61c:	f5007d40 	.word	0xf5007d40
     620:	f5007fff 	.word	0xf5007fff
     624:	f5007f10 	.word	0xf5007f10

00000628 <svc_putc>:
     628:	e92d4008 	push	{r3, lr}
     62c:	e59f3050 	ldr	r3, [pc, #80]	; 684 <svc_putc+0x5c>
     630:	e593349c 	ldr	r3, [r3, #1180]	; 0x49c
     634:	e1d320b4 	ldrh	r2, [r3, #4]
     638:	e0831002 	add	r1, r3, r2
     63c:	e5c10008 	strb	r0, [r1, #8]
     640:	e2822001 	add	r2, r2, #1
     644:	e1a02802 	lsl	r2, r2, #16
     648:	e1a02822 	lsr	r2, r2, #16
     64c:	e1c320b4 	strh	r2, [r3, #4]
     650:	e350000a 	cmp	r0, #10
     654:	13500000 	cmpne	r0, #0
     658:	0a000001 	beq	664 <svc_putc+0x3c>
     65c:	e3520f43 	cmp	r2, #268	; 0x10c
     660:	18bd8008 	popne	{r3, pc}
     664:	e1a00003 	mov	r0, r3
     668:	e3a01ffa 	mov	r1, #1000	; 0x3e8
     66c:	ebffff98 	bl	4d4 <spin1_send_sdp_msg>
     670:	e59f300c 	ldr	r3, [pc, #12]	; 684 <svc_putc+0x5c>
     674:	e593349c 	ldr	r3, [r3, #1180]	; 0x49c
     678:	e3a0200c 	mov	r2, #12
     67c:	e1c320b4 	strh	r2, [r3, #4]
     680:	e8bd8008 	pop	{r3, pc}
     684:	00402ad8 	.word	0x00402ad8

00000688 <cpu_int_c>:
     688:	e92d4070 	push	{r4, r5, r6, lr}
     68c:	e59f3370 	ldr	r3, [pc, #880]	; a04 <cpu_int_c+0x37c>
     690:	e5933000 	ldr	r3, [r3]
     694:	e3a02001 	mov	r2, #1
     698:	e1a02312 	lsl	r2, r2, r3
     69c:	e282245e 	add	r2, r2, #1577058304	; 0x5e000000
     6a0:	e2822503 	add	r2, r2, #12582912	; 0xc00000
     6a4:	e3a034f2 	mov	r3, #-234881024	; 0xf2000000
     6a8:	e583200c 	str	r2, [r3, #12]
     6ac:	e59f3354 	ldr	r3, [pc, #852]	; a08 <cpu_int_c+0x380>
     6b0:	e5930000 	ldr	r0, [r3]
     6b4:	e59f2350 	ldr	r2, [pc, #848]	; a0c <cpu_int_c+0x384>
     6b8:	e0821180 	add	r1, r2, r0, lsl #3
     6bc:	e7d23180 	ldrb	r3, [r2, r0, lsl #3]
     6c0:	e20330ff 	and	r3, r3, #255	; 0xff
     6c4:	e5915004 	ldr	r5, [r1, #4]
     6c8:	e3530001 	cmp	r3, #1
     6cc:	1a0000bf 	bne	9d0 <cpu_int_c+0x348>
     6d0:	e3a03000 	mov	r3, #0
     6d4:	e7c23180 	strb	r3, [r2, r0, lsl #3]
     6d8:	ebffff1f 	bl	35c <spin1_msg_get>
     6dc:	e2504000 	subs	r4, r0, #0
     6e0:	0a0000b7 	beq	9c4 <cpu_int_c+0x33c>
     6e4:	e1a00004 	mov	r0, r4
     6e8:	e1a01005 	mov	r1, r5
     6ec:	ebfffe94 	bl	144 <copy_msg>
     6f0:	e1a00005 	mov	r0, r5
     6f4:	ebfffef9 	bl	2e0 <shm_msg_free>
     6f8:	e5d4500a 	ldrb	r5, [r4, #10]
     6fc:	e31500e0 	tst	r5, #224	; 0xe0
     700:	1a00009f 	bne	984 <cpu_int_c+0x2fc>
     704:	e1d430b4 	ldrh	r3, [r4, #4]
     708:	e3530017 	cmp	r3, #23
     70c:	93a02081 	movls	r2, #129	; 0x81
     710:	91c421b0 	strhls	r2, [r4, #16]
     714:	93a0300c 	movls	r3, #12
     718:	9a00008a 	bls	948 <cpu_int_c+0x2c0>
     71c:	e1d431b0 	ldrh	r3, [r4, #16]
     720:	e3a05080 	mov	r5, #128	; 0x80
     724:	e1c451b0 	strh	r5, [r4, #16]
     728:	e3530004 	cmp	r3, #4
     72c:	979ff103 	ldrls	pc, [pc, r3, lsl #2]
     730:	ea000081 	b	93c <cpu_int_c+0x2b4>
     734:	00000748 	.word	0x00000748
     738:	00000798 	.word	0x00000798
     73c:	000007a8 	.word	0x000007a8
     740:	0000085c 	.word	0x0000085c
     744:	00000928 	.word	0x00000928
     748:	e59f32b4 	ldr	r3, [pc, #692]	; a04 <cpu_int_c+0x37c>
     74c:	e5932000 	ldr	r2, [r3]
     750:	e59f32b0 	ldr	r3, [pc, #688]	; a08 <cpu_int_c+0x380>
     754:	e5933000 	ldr	r3, [r3]
     758:	e0833402 	add	r3, r3, r2, lsl #8
     75c:	e59f22ac 	ldr	r2, [pc, #684]	; a10 <cpu_int_c+0x388>
     760:	e1522fbf 	ldrh	r2, [r2, #-255]	; 0xffffff01
     764:	e0833802 	add	r3, r3, r2, lsl #16
     768:	e5843014 	str	r3, [r4, #20]
     76c:	e59f32a0 	ldr	r3, [pc, #672]	; a14 <cpu_int_c+0x38c>
     770:	e5843018 	str	r3, [r4, #24]
     774:	e2833c4a 	add	r3, r3, #18944	; 0x4a00
     778:	e2833175 	add	r3, r3, #1073741853	; 0x4000001d
     77c:	e2833546 	add	r3, r3, #293601280	; 0x11800000
     780:	e584301c 	str	r3, [r4, #28]
     784:	e2840020 	add	r0, r4, #32
     788:	e59f1288 	ldr	r1, [pc, #648]	; a18 <cpu_int_c+0x390>
     78c:	ebfffe8d 	bl	1c8 <str_cpy>
     790:	e3a03027 	mov	r3, #39	; 0x27
     794:	ea00006b 	b	948 <cpu_int_c+0x2c0>
     798:	e5940014 	ldr	r0, [r4, #20]
     79c:	ebfffe67 	bl	140 <bx>
     7a0:	e3a0300c 	mov	r3, #12
     7a4:	ea000067 	b	948 <cpu_int_c+0x2c0>
     7a8:	e5943018 	ldr	r3, [r4, #24]
     7ac:	e594201c 	ldr	r2, [r4, #28]
     7b0:	e3520002 	cmp	r2, #2
     7b4:	93530c01 	cmpls	r3, #256	; 0x100
     7b8:	83a0c084 	movhi	ip, #132	; 0x84
     7bc:	81c4c1b0 	strhhi	ip, [r4, #16]
     7c0:	83a03000 	movhi	r3, #0
     7c4:	8a000022 	bhi	854 <cpu_int_c+0x1cc>
     7c8:	e1a01004 	mov	r1, r4
     7cc:	e5b1c014 	ldr	ip, [r1, #20]!
     7d0:	e3520000 	cmp	r2, #0
     7d4:	1a000007 	bne	7f8 <cpu_int_c+0x170>
     7d8:	e3530000 	cmp	r3, #0
     7dc:	0a00001c 	beq	854 <cpu_int_c+0x1cc>
     7e0:	e7d2000c 	ldrb	r0, [r2, ip]
     7e4:	e7c10002 	strb	r0, [r1, r2]
     7e8:	e2822001 	add	r2, r2, #1
     7ec:	e1520003 	cmp	r2, r3
     7f0:	1afffffa 	bne	7e0 <cpu_int_c+0x158>
     7f4:	ea000016 	b	854 <cpu_int_c+0x1cc>
     7f8:	e3520001 	cmp	r2, #1
     7fc:	1a00000a 	bne	82c <cpu_int_c+0x1a4>
     800:	e1b0e0a3 	lsrs	lr, r3, #1
     804:	0a000012 	beq	854 <cpu_int_c+0x1cc>
     808:	e3a02000 	mov	r2, #0
     80c:	e1a00002 	mov	r0, r2
     810:	e19250bc 	ldrh	r5, [r2, ip]
     814:	e18150b2 	strh	r5, [r1, r2]
     818:	e2800001 	add	r0, r0, #1
     81c:	e2822002 	add	r2, r2, #2
     820:	e150000e 	cmp	r0, lr
     824:	1afffff9 	bne	810 <cpu_int_c+0x188>
     828:	ea000009 	b	854 <cpu_int_c+0x1cc>
     82c:	e1b05123 	lsrs	r5, r3, #2
     830:	0a000007 	beq	854 <cpu_int_c+0x1cc>
     834:	e3a02000 	mov	r2, #0
     838:	e1a00002 	mov	r0, r2
     83c:	e792e00c 	ldr	lr, [r2, ip]
     840:	e781e002 	str	lr, [r1, r2]
     844:	e2800001 	add	r0, r0, #1
     848:	e2822004 	add	r2, r2, #4
     84c:	e1500005 	cmp	r0, r5
     850:	1afffff9 	bne	83c <cpu_int_c+0x1b4>
     854:	e283300c 	add	r3, r3, #12
     858:	ea00003a 	b	948 <cpu_int_c+0x2c0>
     85c:	e5940018 	ldr	r0, [r4, #24]
     860:	e594201c 	ldr	r2, [r4, #28]
     864:	e3520002 	cmp	r2, #2
     868:	93500c01 	cmpls	r0, #256	; 0x100
     86c:	83a0c084 	movhi	ip, #132	; 0x84
     870:	81c4c1b0 	strhhi	ip, [r4, #16]
     874:	83a0300c 	movhi	r3, #12
     878:	8a000032 	bhi	948 <cpu_int_c+0x2c0>
     87c:	e5943014 	ldr	r3, [r4, #20]
     880:	e3520000 	cmp	r2, #0
     884:	1a00000a 	bne	8b4 <cpu_int_c+0x22c>
     888:	e3500000 	cmp	r0, #0
     88c:	03a0300c 	moveq	r3, #12
     890:	0a00002c 	beq	948 <cpu_int_c+0x2c0>
     894:	e284201f 	add	r2, r4, #31
     898:	e0830000 	add	r0, r3, r0
     89c:	e5f21001 	ldrb	r1, [r2, #1]!
     8a0:	e4c31001 	strb	r1, [r3], #1
     8a4:	e1530000 	cmp	r3, r0
     8a8:	1afffffb 	bne	89c <cpu_int_c+0x214>
     8ac:	e3a0300c 	mov	r3, #12
     8b0:	ea000024 	b	948 <cpu_int_c+0x2c0>
     8b4:	e284e020 	add	lr, r4, #32
     8b8:	e3520001 	cmp	r2, #1
     8bc:	1a00000c 	bne	8f4 <cpu_int_c+0x26c>
     8c0:	e1b000a0 	lsrs	r0, r0, #1
     8c4:	03a0300c 	moveq	r3, #12
     8c8:	0a00001e 	beq	948 <cpu_int_c+0x2c0>
     8cc:	e3a02000 	mov	r2, #0
     8d0:	e1a01002 	mov	r1, r2
     8d4:	e19e50b2 	ldrh	r5, [lr, r2]
     8d8:	e18250b3 	strh	r5, [r2, r3]
     8dc:	e2811001 	add	r1, r1, #1
     8e0:	e2822002 	add	r2, r2, #2
     8e4:	e1510000 	cmp	r1, r0
     8e8:	1afffff9 	bne	8d4 <cpu_int_c+0x24c>
     8ec:	e3a0300c 	mov	r3, #12
     8f0:	ea000014 	b	948 <cpu_int_c+0x2c0>
     8f4:	e1b00120 	lsrs	r0, r0, #2
     8f8:	03a0300c 	moveq	r3, #12
     8fc:	0a000011 	beq	948 <cpu_int_c+0x2c0>
     900:	e3a02000 	mov	r2, #0
     904:	e1a01002 	mov	r1, r2
     908:	e79ec002 	ldr	ip, [lr, r2]
     90c:	e782c003 	str	ip, [r2, r3]
     910:	e2811001 	add	r1, r1, #1
     914:	e2822004 	add	r2, r2, #4
     918:	e1510000 	cmp	r1, r0
     91c:	1afffff9 	bne	908 <cpu_int_c+0x280>
     920:	e3a0300c 	mov	r3, #12
     924:	ea000007 	b	948 <cpu_int_c+0x2c0>
     928:	e5940014 	ldr	r0, [r4, #20]
     92c:	e3a01000 	mov	r1, #0
     930:	fafffe42 	blx	240 <proc_aplx>
     934:	e3a0300c 	mov	r3, #12
     938:	ea000002 	b	948 <cpu_int_c+0x2c0>
     93c:	e3a0c083 	mov	ip, #131	; 0x83
     940:	e1c4c1b0 	strh	ip, [r4, #16]
     944:	e3a0300c 	mov	r3, #12
     948:	e1c430b4 	strh	r3, [r4, #4]
     94c:	e5d4200a 	ldrb	r2, [r4, #10]
     950:	e1d430bc 	ldrh	r3, [r4, #12]
     954:	e5d4100b 	ldrb	r1, [r4, #11]
     958:	e5c4100a 	strb	r1, [r4, #10]
     95c:	e5c4200b 	strb	r2, [r4, #11]
     960:	e1d420be 	ldrh	r2, [r4, #14]
     964:	e1c420bc 	strh	r2, [r4, #12]
     968:	e1c430be 	strh	r3, [r4, #14]
     96c:	e1a00004 	mov	r0, r4
     970:	e3a01ffa 	mov	r1, #1000	; 0x3e8
     974:	ebfffed6 	bl	4d4 <spin1_send_sdp_msg>
     978:	e1a00004 	mov	r0, r4
     97c:	ebfffe8b 	bl	3b0 <spin1_msg_free>
     980:	e8bd8070 	pop	{r4, r5, r6, pc}
     984:	e59f3090 	ldr	r3, [pc, #144]	; a1c <cpu_int_c+0x394>
     988:	e5933018 	ldr	r3, [r3, #24]
     98c:	e3530000 	cmp	r3, #0
     990:	0a000008 	beq	9b8 <cpu_int_c+0x330>
     994:	ebfffe03 	bl	1a8 <cpu_int_off>
     998:	e1a06000 	mov	r6, r0
     99c:	e3a00003 	mov	r0, #3
     9a0:	e1a01004 	mov	r1, r4
     9a4:	e1a022a5 	lsr	r2, r5, #5
     9a8:	eb0005df 	bl	212c <schedule_sysmode>
     9ac:	e1a00006 	mov	r0, r6
     9b0:	ebfffe00 	bl	1b8 <cpu_mode_set>
     9b4:	e8bd8070 	pop	{r4, r5, r6, pc}
     9b8:	e1a00004 	mov	r0, r4
     9bc:	ebfffe7b 	bl	3b0 <spin1_msg_free>
     9c0:	e8bd8070 	pop	{r4, r5, r6, pc}
     9c4:	e1a00005 	mov	r0, r5
     9c8:	ebfffe44 	bl	2e0 <shm_msg_free>
     9cc:	e8bd8070 	pop	{r4, r5, r6, pc}
     9d0:	e3530002 	cmp	r3, #2
     9d4:	1a000004 	bne	9ec <cpu_int_c+0x364>
     9d8:	e3a01000 	mov	r1, #0
     9dc:	e7c21180 	strb	r1, [r2, r0, lsl #3]
     9e0:	e1a00005 	mov	r0, r5
     9e4:	fafffe15 	blx	240 <proc_aplx>
     9e8:	e8bd8070 	pop	{r4, r5, r6, pc}
     9ec:	e3530003 	cmp	r3, #3
     9f0:	02855001 	addeq	r5, r5, #1
     9f4:	05815004 	streq	r5, [r1, #4]
     9f8:	03a03000 	moveq	r3, #0
     9fc:	07c23180 	strbeq	r3, [r2, r0, lsl #3]
     a00:	e8bd8070 	pop	{r4, r5, r6, pc}
     a04:	00400050 	.word	0x00400050
     a08:	00400058 	.word	0x00400058
     a0c:	f5007de0 	.word	0xf5007de0
     a10:	f5007fff 	.word	0xf5007fff
     a14:	005c0100 	.word	0x005c0100
     a18:	00002d7c 	.word	0x00002d7c
     a1c:	004001ac 	.word	0x004001ac

00000a20 <cc_rx_ready_isr>:
     a20:	e24ee004 	sub	lr, lr, #4
     a24:	e92d500f 	push	{r0, r1, r2, r3, ip, lr}
     a28:	e3a03201 	mov	r3, #268435456	; 0x10000000
     a2c:	e5932010 	ldr	r2, [r3, #16]
     a30:	e5931014 	ldr	r1, [r3, #20]
     a34:	e59f3034 	ldr	r3, [pc, #52]	; a70 <cc_rx_ready_isr+0x50>
     a38:	e5933000 	ldr	r3, [r3]
     a3c:	e3530000 	cmp	r3, #0
     a40:	0a000002 	beq	a50 <cc_rx_ready_isr+0x30>
     a44:	e3a00000 	mov	r0, #0
     a48:	ebfffdf1 	bl	214 <schedule>
     a4c:	ea000003 	b	a60 <cc_rx_ready_isr+0x40>
     a50:	e59f301c 	ldr	r3, [pc, #28]	; a74 <cc_rx_ready_isr+0x54>
     a54:	e5932000 	ldr	r2, [r3]
     a58:	e2822001 	add	r2, r2, #1
     a5c:	e5832000 	str	r2, [r3]
     a60:	e3a02001 	mov	r2, #1
     a64:	e3a0341f 	mov	r3, #520093696	; 0x1f000000
     a68:	e5832030 	str	r2, [r3, #48]	; 0x30
     a6c:	e8fd900f 	ldm	sp!, {r0, r1, r2, r3, ip, pc}^
     a70:	004001ac 	.word	0x004001ac
     a74:	0040005c 	.word	0x0040005c

00000a78 <barrier_packet_handler>:
     a78:	e92d000c 	push	{r2, r3}
     a7c:	e3a03201 	mov	r3, #268435456	; 0x10000000
     a80:	e5933014 	ldr	r3, [r3, #20]
     a84:	e283320f 	add	r3, r3, #-268435456	; 0xf0000000
     a88:	e2833b02 	add	r3, r3, #2048	; 0x800
     a8c:	e3530003 	cmp	r3, #3
     a90:	979ff103 	ldrls	pc, [pc, r3, lsl #2]
     a94:	ea00001e 	b	b14 <barrier_packet_handler+0x9c>
     a98:	00000ab8 	.word	0x00000ab8
     a9c:	00000aa8 	.word	0x00000aa8
     aa0:	00000af0 	.word	0x00000af0
     aa4:	00000b04 	.word	0x00000b04
     aa8:	e3a02001 	mov	r2, #1
     aac:	e59f3074 	ldr	r3, [pc, #116]	; b28 <barrier_packet_handler+0xb0>
     ab0:	e5832000 	str	r2, [r3]
     ab4:	ea000016 	b	b14 <barrier_packet_handler+0x9c>
     ab8:	e59f306c 	ldr	r3, [pc, #108]	; b2c <barrier_packet_handler+0xb4>
     abc:	e5933004 	ldr	r3, [r3, #4]
     ac0:	e3530000 	cmp	r3, #0
     ac4:	b3a0341f 	movlt	r3, #520093696	; 0x1f000000
     ac8:	b593200c 	ldrlt	r2, [r3, #12]
     acc:	b3822040 	orrlt	r2, r2, #64	; 0x40
     ad0:	b583200c 	strlt	r2, [r3, #12]
     ad4:	a59f2054 	ldrge	r2, [pc, #84]	; b30 <barrier_packet_handler+0xb8>
     ad8:	a3a0341f 	movge	r3, #520093696	; 0x1f000000
     adc:	a583210c 	strge	r2, [r3, #268]	; 0x10c
     ae0:	e3a02001 	mov	r2, #1
     ae4:	e59f3048 	ldr	r3, [pc, #72]	; b34 <barrier_packet_handler+0xbc>
     ae8:	e5832000 	str	r2, [r3]
     aec:	ea000008 	b	b14 <barrier_packet_handler+0x9c>
     af0:	e59f3040 	ldr	r3, [pc, #64]	; b38 <barrier_packet_handler+0xc0>
     af4:	e5932000 	ldr	r2, [r3]
     af8:	e2822001 	add	r2, r2, #1
     afc:	e5832000 	str	r2, [r3]
     b00:	ea000003 	b	b14 <barrier_packet_handler+0x9c>
     b04:	e59f3030 	ldr	r3, [pc, #48]	; b3c <barrier_packet_handler+0xc4>
     b08:	e5932000 	ldr	r2, [r3]
     b0c:	e2822001 	add	r2, r2, #1
     b10:	e5832000 	str	r2, [r3]
     b14:	e3a02001 	mov	r2, #1
     b18:	e3a0341f 	mov	r3, #520093696	; 0x1f000000
     b1c:	e5832030 	str	r2, [r3, #48]	; 0x30
     b20:	e8bd000c 	pop	{r2, r3}
     b24:	e25ef004 	subs	pc, lr, #4
     b28:	004032cc 	.word	0x004032cc
     b2c:	004001ac 	.word	0x004001ac
     b30:	00000a20 	.word	0x00000a20
     b34:	004032d0 	.word	0x004032d0
     b38:	00400018 	.word	0x00400018
     b3c:	0040001c 	.word	0x0040001c

00000b40 <cc_rx_error_isr>:
     b40:	e92d000c 	push	{r2, r3}
     b44:	e3a03201 	mov	r3, #268435456	; 0x10000000
     b48:	e5932014 	ldr	r2, [r3, #20]
     b4c:	e3a02000 	mov	r2, #0
     b50:	e583200c 	str	r2, [r3, #12]
     b54:	e3a02001 	mov	r2, #1
     b58:	e3a0341f 	mov	r3, #520093696	; 0x1f000000
     b5c:	e5832030 	str	r2, [r3, #48]	; 0x30
     b60:	e8bd000c 	pop	{r2, r3}
     b64:	e25ef004 	subs	pc, lr, #4

00000b68 <cc_tx_empty_isr>:
     b68:	e24ee004 	sub	lr, lr, #4
     b6c:	e92d503f 	push	{r0, r1, r2, r3, r4, r5, ip, lr}
     b70:	e3a02000 	mov	r2, #0
     b74:	e3a03201 	mov	r3, #268435456	; 0x10000000
     b78:	e5832000 	str	r2, [r3]
     b7c:	e59f2080 	ldr	r2, [pc, #128]	; c04 <ETH_RX_SIZE+0x4>
     b80:	e5923000 	ldr	r3, [r2]
     b84:	e5922004 	ldr	r2, [r2, #4]
     b88:	e1530002 	cmp	r3, r2
     b8c:	0a000015 	beq	be8 <cc_tx_empty_isr+0x80>
     b90:	e3a02201 	mov	r2, #268435456	; 0x10000000
     b94:	e5922000 	ldr	r2, [r2]
     b98:	e3120101 	tst	r2, #1073741824	; 0x40000000
     b9c:	1a000014 	bne	bf4 <cc_tx_empty_isr+0x8c>
     ba0:	e59f405c 	ldr	r4, [pc, #92]	; c04 <ETH_RX_SIZE+0x4>
     ba4:	e3a05201 	mov	r5, #268435456	; 0x10000000
     ba8:	e0832083 	add	r2, r3, r3, lsl #1
     bac:	e0842102 	add	r2, r4, r2, lsl #2
     bb0:	e2820008 	add	r0, r2, #8
     bb4:	e8900007 	ldm	r0, {r0, r1, r2}
     bb8:	e2833001 	add	r3, r3, #1
     bbc:	e203300f 	and	r3, r3, #15
     bc0:	e5843000 	str	r3, [r4]
     bc4:	eb0002d7 	bl	1728 <send_mc_packet_fulfil>
     bc8:	e5943000 	ldr	r3, [r4]
     bcc:	e5942004 	ldr	r2, [r4, #4]
     bd0:	e1530002 	cmp	r3, r2
     bd4:	0a000003 	beq	be8 <cc_tx_empty_isr+0x80>
     bd8:	e5952000 	ldr	r2, [r5]
     bdc:	e3120101 	tst	r2, #1073741824	; 0x40000000
     be0:	0afffff0 	beq	ba8 <cc_tx_empty_isr+0x40>
     be4:	ea000002 	b	bf4 <cc_tx_empty_isr+0x8c>
     be8:	e3a02b02 	mov	r2, #2048	; 0x800
     bec:	e3a0341f 	mov	r3, #520093696	; 0x1f000000
     bf0:	e5832014 	str	r2, [r3, #20]
     bf4:	e3a02001 	mov	r2, #1
     bf8:	e3a0341f 	mov	r3, #520093696	; 0x1f000000
     bfc:	e5832030 	str	r2, [r3, #48]	; 0x30
     c00:	e8fd903f 	ldm	sp!, {r0, r1, r2, r3, r4, r5, ip, pc}^
     c04:	004001d4 	.word	0x004001d4

00000c08 <dma_error_isr>:
     c08:	e92d000c 	push	{r2, r3}
     c0c:	e3a02020 	mov	r2, #32
     c10:	e3a03203 	mov	r3, #805306368	; 0x30000000
     c14:	e5832010 	str	r2, [r3, #16]
     c18:	e3a02001 	mov	r2, #1
     c1c:	e3a0341f 	mov	r3, #520093696	; 0x1f000000
     c20:	e5832030 	str	r2, [r3, #48]	; 0x30
     c24:	e8bd000c 	pop	{r2, r3}
     c28:	e25ef004 	subs	pc, lr, #4

00000c2c <dma_done_isr>:
     c2c:	e24ee004 	sub	lr, lr, #4
     c30:	e92d503f 	push	{r0, r1, r2, r3, r4, r5, ip, lr}
     c34:	e3a02008 	mov	r2, #8
     c38:	e3a03203 	mov	r3, #805306368	; 0x30000000
     c3c:	e5832010 	str	r2, [r3, #16]
     c40:	e59f3074 	ldr	r3, [pc, #116]	; cbc <dma_done_isr+0x90>
     c44:	e5930000 	ldr	r0, [r3]
     c48:	e0802100 	add	r2, r0, r0, lsl #2
     c4c:	e0832102 	add	r2, r3, r2, lsl #2
     c50:	e5921008 	ldr	r1, [r2, #8]
     c54:	e592200c 	ldr	r2, [r2, #12]
     c58:	e2800001 	add	r0, r0, #1
     c5c:	e200000f 	and	r0, r0, #15
     c60:	e5830000 	str	r0, [r3]
     c64:	e5933004 	ldr	r3, [r3, #4]
     c68:	e1500003 	cmp	r0, r3
     c6c:	0a000008 	beq	c94 <dma_done_isr+0x68>
     c70:	e0800100 	add	r0, r0, r0, lsl #2
     c74:	e59f3040 	ldr	r3, [pc, #64]	; cbc <dma_done_isr+0x90>
     c78:	e0830100 	add	r0, r3, r0, lsl #2
     c7c:	e2800010 	add	r0, r0, #16
     c80:	e8901011 	ldm	r0, {r0, r4, ip}
     c84:	e3a03203 	mov	r3, #805306368	; 0x30000000
     c88:	e5830004 	str	r0, [r3, #4]
     c8c:	e5834008 	str	r4, [r3, #8]
     c90:	e583c00c 	str	ip, [r3, #12]
     c94:	e59f3024 	ldr	r3, [pc, #36]	; cc0 <dma_done_isr+0x94>
     c98:	e5933008 	ldr	r3, [r3, #8]
     c9c:	e3530000 	cmp	r3, #0
     ca0:	0a000001 	beq	cac <dma_done_isr+0x80>
     ca4:	e3a00001 	mov	r0, #1
     ca8:	ebfffd59 	bl	214 <schedule>
     cac:	e3a02001 	mov	r2, #1
     cb0:	e3a0341f 	mov	r3, #520093696	; 0x1f000000
     cb4:	e5832030 	str	r2, [r3, #48]	; 0x30
     cb8:	e8fd903f 	ldm	sp!, {r0, r1, r2, r3, r4, r5, ip, pc}^
     cbc:	00400060 	.word	0x00400060
     cc0:	004001ac 	.word	0x004001ac

00000cc4 <timer1_isr>:
     cc4:	e24ee004 	sub	lr, lr, #4
     cc8:	e92d500f 	push	{r0, r1, r2, r3, ip, lr}
     ccc:	e3a02001 	mov	r2, #1
     cd0:	e3a03411 	mov	r3, #285212672	; 0x11000000
     cd4:	e583200c 	str	r2, [r3, #12]
     cd8:	e59f303c 	ldr	r3, [pc, #60]	; d1c <timer1_isr+0x58>
     cdc:	e5932000 	ldr	r2, [r3]
     ce0:	e2822001 	add	r2, r2, #1
     ce4:	e5832000 	str	r2, [r3]
     ce8:	e59f3030 	ldr	r3, [pc, #48]	; d20 <timer1_isr+0x5c>
     cec:	e5933010 	ldr	r3, [r3, #16]
     cf0:	e3530000 	cmp	r3, #0
     cf4:	0a000004 	beq	d0c <timer1_isr+0x48>
     cf8:	e59f301c 	ldr	r3, [pc, #28]	; d1c <timer1_isr+0x58>
     cfc:	e5931000 	ldr	r1, [r3]
     d00:	e3a00002 	mov	r0, #2
     d04:	e3a02000 	mov	r2, #0
     d08:	ebfffd41 	bl	214 <schedule>
     d0c:	e3a02001 	mov	r2, #1
     d10:	e3a0341f 	mov	r3, #520093696	; 0x1f000000
     d14:	e5832030 	str	r2, [r3, #48]	; 0x30
     d18:	e8fd900f 	ldm	sp!, {r0, r1, r2, r3, ip, pc}^
     d1c:	00402f7c 	.word	0x00402f7c
     d20:	004001ac 	.word	0x004001ac

00000d24 <soft_int_isr>:
     d24:	e24ee004 	sub	lr, lr, #4
     d28:	e92d500f 	push	{r0, r1, r2, r3, ip, lr}
     d2c:	e3a02002 	mov	r2, #2
     d30:	e3a0341f 	mov	r3, #520093696	; 0x1f000000
     d34:	e583201c 	str	r2, [r3, #28]
     d38:	e3a02000 	mov	r2, #0
     d3c:	e59f3038 	ldr	r3, [pc, #56]	; d7c <soft_int_isr+0x58>
     d40:	e5c32000 	strb	r2, [r3]
     d44:	e59f3034 	ldr	r3, [pc, #52]	; d80 <soft_int_isr+0x5c>
     d48:	e5933020 	ldr	r3, [r3, #32]
     d4c:	e1530002 	cmp	r3, r2
     d50:	0a000005 	beq	d6c <soft_int_isr+0x48>
     d54:	e3a00004 	mov	r0, #4
     d58:	e59f3024 	ldr	r3, [pc, #36]	; d84 <soft_int_isr+0x60>
     d5c:	e5931000 	ldr	r1, [r3]
     d60:	e59f3020 	ldr	r3, [pc, #32]	; d88 <soft_int_isr+0x64>
     d64:	e5932000 	ldr	r2, [r3]
     d68:	ebfffd29 	bl	214 <schedule>
     d6c:	e3a02001 	mov	r2, #1
     d70:	e3a0341f 	mov	r3, #520093696	; 0x1f000000
     d74:	e5832030 	str	r2, [r3, #48]	; 0x30
     d78:	e8fd900f 	ldm	sp!, {r0, r1, r2, r3, ip, pc}^
     d7c:	004032d4 	.word	0x004032d4
     d80:	004001ac 	.word	0x004001ac
     d84:	004001a8 	.word	0x004001a8
     d88:	00400054 	.word	0x00400054

00000d8c <cc_rx_ready_fiqsr>:
     d8c:	e24ee004 	sub	lr, lr, #4
     d90:	e92d500f 	push	{r0, r1, r2, r3, ip, lr}
     d94:	e3a03201 	mov	r3, #268435456	; 0x10000000
     d98:	e5931010 	ldr	r1, [r3, #16]
     d9c:	e5930014 	ldr	r0, [r3, #20]
     da0:	e59f3008 	ldr	r3, [pc, #8]	; db0 <cc_rx_ready_fiqsr+0x24>
     da4:	e5933000 	ldr	r3, [r3]
     da8:	e12fff33 	blx	r3
     dac:	e8fd900f 	ldm	sp!, {r0, r1, r2, r3, ip, pc}^
     db0:	004001ac 	.word	0x004001ac

00000db4 <dma_done_fiqsr>:
     db4:	e24ee004 	sub	lr, lr, #4
     db8:	e92d500f 	push	{r0, r1, r2, r3, ip, lr}
     dbc:	e3a02008 	mov	r2, #8
     dc0:	e3a03203 	mov	r3, #805306368	; 0x30000000
     dc4:	e5832010 	str	r2, [r3, #16]
     dc8:	e59f3060 	ldr	r3, [pc, #96]	; e30 <dma_done_fiqsr+0x7c>
     dcc:	e5932000 	ldr	r2, [r3]
     dd0:	e0821102 	add	r1, r2, r2, lsl #2
     dd4:	e0831101 	add	r1, r3, r1, lsl #2
     dd8:	e5910008 	ldr	r0, [r1, #8]
     ddc:	e591100c 	ldr	r1, [r1, #12]
     de0:	e2822001 	add	r2, r2, #1
     de4:	e202200f 	and	r2, r2, #15
     de8:	e5832000 	str	r2, [r3]
     dec:	e5933004 	ldr	r3, [r3, #4]
     df0:	e1520003 	cmp	r2, r3
     df4:	0a000009 	beq	e20 <dma_done_fiqsr+0x6c>
     df8:	e0822102 	add	r2, r2, r2, lsl #2
     dfc:	e59f302c 	ldr	r3, [pc, #44]	; e30 <dma_done_fiqsr+0x7c>
     e00:	e0832102 	add	r2, r3, r2, lsl #2
     e04:	e592e014 	ldr	lr, [r2, #20]
     e08:	e592c018 	ldr	ip, [r2, #24]
     e0c:	e5922010 	ldr	r2, [r2, #16]
     e10:	e3a03203 	mov	r3, #805306368	; 0x30000000
     e14:	e5832004 	str	r2, [r3, #4]
     e18:	e583e008 	str	lr, [r3, #8]
     e1c:	e583c00c 	str	ip, [r3, #12]
     e20:	e59f300c 	ldr	r3, [pc, #12]	; e34 <dma_done_fiqsr+0x80>
     e24:	e5933008 	ldr	r3, [r3, #8]
     e28:	e12fff33 	blx	r3
     e2c:	e8fd900f 	ldm	sp!, {r0, r1, r2, r3, ip, pc}^
     e30:	00400060 	.word	0x00400060
     e34:	004001ac 	.word	0x004001ac

00000e38 <timer1_fiqsr>:
     e38:	e24ee004 	sub	lr, lr, #4
     e3c:	e92d500f 	push	{r0, r1, r2, r3, ip, lr}
     e40:	e3a02001 	mov	r2, #1
     e44:	e3a03411 	mov	r3, #285212672	; 0x11000000
     e48:	e583200c 	str	r2, [r3, #12]
     e4c:	e59f3020 	ldr	r3, [pc, #32]	; e74 <timer1_fiqsr+0x3c>
     e50:	e5932000 	ldr	r2, [r3]
     e54:	e2822001 	add	r2, r2, #1
     e58:	e5832000 	str	r2, [r3]
     e5c:	e5930000 	ldr	r0, [r3]
     e60:	e59f3010 	ldr	r3, [pc, #16]	; e78 <timer1_fiqsr+0x40>
     e64:	e5933010 	ldr	r3, [r3, #16]
     e68:	e3a01000 	mov	r1, #0
     e6c:	e12fff33 	blx	r3
     e70:	e8fd900f 	ldm	sp!, {r0, r1, r2, r3, ip, pc}^
     e74:	00402f7c 	.word	0x00402f7c
     e78:	004001ac 	.word	0x004001ac

00000e7c <soft_int_fiqsr>:
     e7c:	e24ee004 	sub	lr, lr, #4
     e80:	e92d500f 	push	{r0, r1, r2, r3, ip, lr}
     e84:	e3a02002 	mov	r2, #2
     e88:	e3a0341f 	mov	r3, #520093696	; 0x1f000000
     e8c:	e583201c 	str	r2, [r3, #28]
     e90:	e59f3024 	ldr	r3, [pc, #36]	; ebc <soft_int_fiqsr+0x40>
     e94:	e5933020 	ldr	r3, [r3, #32]
     e98:	e59f2020 	ldr	r2, [pc, #32]	; ec0 <soft_int_fiqsr+0x44>
     e9c:	e5920000 	ldr	r0, [r2]
     ea0:	e59f201c 	ldr	r2, [pc, #28]	; ec4 <soft_int_fiqsr+0x48>
     ea4:	e5921000 	ldr	r1, [r2]
     ea8:	e12fff33 	blx	r3
     eac:	e3a02000 	mov	r2, #0
     eb0:	e59f3010 	ldr	r3, [pc, #16]	; ec8 <soft_int_fiqsr+0x4c>
     eb4:	e5c32000 	strb	r2, [r3]
     eb8:	e8fd900f 	ldm	sp!, {r0, r1, r2, r3, ip, pc}^
     ebc:	004001ac 	.word	0x004001ac
     ec0:	004001a8 	.word	0x004001a8
     ec4:	00400054 	.word	0x00400054
     ec8:	004032d4 	.word	0x004032d4

00000ecc <spin1_srand>:
     ecc:	e59f3010 	ldr	r3, [pc, #16]	; ee4 <spin1_srand+0x18>
     ed0:	e5830000 	str	r0, [r3]
     ed4:	e3a02000 	mov	r2, #0
     ed8:	e59f3008 	ldr	r3, [pc, #8]	; ee8 <spin1_srand+0x1c>
     edc:	e5832000 	str	r2, [r3]
     ee0:	e12fff1e 	bx	lr
     ee4:	00400000 	.word	0x00400000
     ee8:	00402f78 	.word	0x00402f78

00000eec <spin1_rand>:
     eec:	e59f1028 	ldr	r1, [pc, #40]	; f1c <RTR_TST2+0x18>
     ef0:	e5910000 	ldr	r0, [r1]
     ef4:	e59f2024 	ldr	r2, [pc, #36]	; f20 <RTR_TST2+0x1c>
     ef8:	e5923000 	ldr	r3, [r2]
     efc:	e11300a3 	tst	r3, r3, lsr #1
     f00:	e1b0c060 	rrxs	ip, r0
     f04:	e0a33003 	adc	r3, r3, r3
     f08:	e02cc600 	eor	ip, ip, r0, lsl #12
     f0c:	e02c0a2c 	eor	r0, ip, ip, lsr #20
     f10:	e5810000 	str	r0, [r1]
     f14:	e5823000 	str	r3, [r2]
     f18:	e12fff1e 	bx	lr
     f1c:	00400000 	.word	0x00400000
     f20:	00402f78 	.word	0x00402f78

00000f24 <spin1_callback_on>:
     f24:	e92d4008 	push	{r3, lr}
     f28:	e59f3060 	ldr	r3, [pc, #96]	; f90 <spin1_callback_on+0x6c>
     f2c:	e7831180 	str	r1, [r3, r0, lsl #3]
     f30:	e3520000 	cmp	r2, #0
     f34:	aa000011 	bge	f80 <spin1_callback_on+0x5c>
     f38:	e59f3054 	ldr	r3, [pc, #84]	; f94 <spin1_callback_on+0x70>
     f3c:	e5933000 	ldr	r3, [r3]
     f40:	e3730001 	cmn	r3, #1
     f44:	11530000 	cmpne	r3, r0
     f48:	1a000005 	bne	f64 <spin1_callback_on+0x40>
     f4c:	e59f303c 	ldr	r3, [pc, #60]	; f90 <spin1_callback_on+0x6c>
     f50:	e0833180 	add	r3, r3, r0, lsl #3
     f54:	e5832004 	str	r2, [r3, #4]
     f58:	e59f3034 	ldr	r3, [pc, #52]	; f94 <spin1_callback_on+0x70>
     f5c:	e5830000 	str	r0, [r3]
     f60:	e8bd8008 	pop	{r3, pc}
     f64:	e59f3024 	ldr	r3, [pc, #36]	; f90 <spin1_callback_on+0x6c>
     f68:	e0833180 	add	r3, r3, r0, lsl #3
     f6c:	e3a00000 	mov	r0, #0
     f70:	e5830004 	str	r0, [r3, #4]
     f74:	e59f101c 	ldr	r1, [pc, #28]	; f98 <spin1_callback_on+0x74>
     f78:	eb0006ea 	bl	2b28 <io_printf>
     f7c:	e8bd8008 	pop	{r3, pc}
     f80:	e59f3008 	ldr	r3, [pc, #8]	; f90 <spin1_callback_on+0x6c>
     f84:	e0830180 	add	r0, r3, r0, lsl #3
     f88:	e5802004 	str	r2, [r0, #4]
     f8c:	e8bd8008 	pop	{r3, pc}
     f90:	004001ac 	.word	0x004001ac
     f94:	00400004 	.word	0x00400004
     f98:	00002d9c 	.word	0x00002d9c

00000f9c <spin1_callback_off>:
     f9c:	e59f3020 	ldr	r3, [pc, #32]	; fc4 <spin1_callback_off+0x28>
     fa0:	e3a02000 	mov	r2, #0
     fa4:	e7832180 	str	r2, [r3, r0, lsl #3]
     fa8:	e0833180 	add	r3, r3, r0, lsl #3
     fac:	e5933004 	ldr	r3, [r3, #4]
     fb0:	e1530002 	cmp	r3, r2
     fb4:	b3e02000 	mvnlt	r2, #0
     fb8:	b59f3008 	ldrlt	r3, [pc, #8]	; fc8 <spin1_callback_off+0x2c>
     fbc:	b5832000 	strlt	r2, [r3]
     fc0:	e12fff1e 	bx	lr
     fc4:	004001ac 	.word	0x004001ac
     fc8:	00400004 	.word	0x00400004

00000fcc <spin1_get_simulation_time>:
     fcc:	e59f3004 	ldr	r3, [pc, #4]	; fd8 <spin1_get_simulation_time+0xc>
     fd0:	e5930000 	ldr	r0, [r3]
     fd4:	e12fff1e 	bx	lr
     fd8:	00402f7c 	.word	0x00402f7c

00000fdc <spin1_set_timer_tick>:
     fdc:	e59f3004 	ldr	r3, [pc, #4]	; fe8 <spin1_set_timer_tick+0xc>
     fe0:	e5830004 	str	r0, [r3, #4]
     fe4:	e12fff1e 	bx	lr
     fe8:	00402f7c 	.word	0x00402f7c

00000fec <spin1_set_core_map>:
     fec:	e92d4ff0 	push	{r4, r5, r6, r7, r8, r9, sl, fp, lr}
     ff0:	e24dd00c 	sub	sp, sp, #12
     ff4:	e1a06001 	mov	r6, r1
     ff8:	e2504000 	subs	r4, r0, #0
     ffc:	03a0c000 	moveq	ip, #0
    1000:	0a000011 	beq	104c <RTS_STACK+0x4c>
    1004:	e59f3364 	ldr	r3, [pc, #868]	; 1370 <RTS_STACK+0x370>
    1008:	e5532042 	ldrb	r2, [r3, #-66]	; 0xffffffbe
    100c:	e1a07001 	mov	r7, r1
    1010:	e3a0c000 	mov	ip, #0
    1014:	e1a0500c 	mov	r5, ip
    1018:	e3a00001 	mov	r0, #1
    101c:	e4971004 	ldr	r1, [r7], #4
    1020:	e3520001 	cmp	r2, #1
    1024:	9a000005 	bls	1040 <RTS_STACK+0x40>
    1028:	e1a03000 	mov	r3, r0
    102c:	e0118310 	ands	r8, r1, r0, lsl r3
    1030:	128cc001 	addne	ip, ip, #1
    1034:	e2833001 	add	r3, r3, #1
    1038:	e1530002 	cmp	r3, r2
    103c:	3afffffa 	bcc	102c <RTS_STACK+0x2c>
    1040:	e2855001 	add	r5, r5, #1
    1044:	e1550004 	cmp	r5, r4
    1048:	1afffff3 	bne	101c <RTS_STACK+0x1c>
    104c:	e59f3320 	ldr	r3, [pc, #800]	; 1374 <RTS_STACK+0x374>
    1050:	e583c004 	str	ip, [r3, #4]
    1054:	e59f331c 	ldr	r3, [pc, #796]	; 1378 <RTS_STACK+0x378>
    1058:	e5d33008 	ldrb	r3, [r3, #8]
    105c:	e3530000 	cmp	r3, #0
    1060:	0a000004 	beq	1078 <RTS_STACK+0x78>
    1064:	e59f3308 	ldr	r3, [pc, #776]	; 1374 <RTS_STACK+0x374>
    1068:	e5932004 	ldr	r2, [r3, #4]
    106c:	e3a00000 	mov	r0, #0
    1070:	e59f1304 	ldr	r1, [pc, #772]	; 137c <RTS_STACK+0x37c>
    1074:	eb0006ab 	bl	2b28 <io_printf>
    1078:	e59f32f4 	ldr	r3, [pc, #756]	; 1374 <RTS_STACK+0x374>
    107c:	e5933004 	ldr	r3, [r3, #4]
    1080:	e3530001 	cmp	r3, #1
    1084:	9a0000b7 	bls	1368 <RTS_STACK+0x368>
    1088:	e59f32e8 	ldr	r3, [pc, #744]	; 1378 <RTS_STACK+0x378>
    108c:	e5d33008 	ldrb	r3, [r3, #8]
    1090:	e3530000 	cmp	r3, #0
    1094:	0a0000b3 	beq	1368 <RTS_STACK+0x368>
    1098:	e3540000 	cmp	r4, #0
    109c:	ba000004 	blt	10b4 <RTS_STACK+0xb4>
    10a0:	e3a03001 	mov	r3, #1
    10a4:	e3a02102 	mov	r2, #-2147483648	; 0x80000000
    10a8:	e0149332 	ands	r9, r4, r2, lsr r3
    10ac:	0a000006 	beq	10cc <RTS_STACK+0xcc>
    10b0:	ea000000 	b	10b8 <RTS_STACK+0xb8>
    10b4:	e3a03000 	mov	r3, #0
    10b8:	e263301f 	rsb	r3, r3, #31
    10bc:	e1a050a3 	lsr	r5, r3, #1
    10c0:	e3a08001 	mov	r8, #1
    10c4:	e1a08518 	lsl	r8, r8, r5
    10c8:	ea000004 	b	10e0 <RTS_STACK+0xe0>
    10cc:	e2833001 	add	r3, r3, #1
    10d0:	e3530020 	cmp	r3, #32
    10d4:	1afffff3 	bne	10a8 <RTS_STACK+0xa8>
    10d8:	e3a08001 	mov	r8, #1
    10dc:	e3a05000 	mov	r5, #0
    10e0:	e3a00000 	mov	r0, #0
    10e4:	e59f1294 	ldr	r1, [pc, #660]	; 1380 <RTS_STACK+0x380>
    10e8:	e1a02008 	mov	r2, r8
    10ec:	e1a03005 	mov	r3, r5
    10f0:	eb00068c 	bl	2b28 <io_printf>
    10f4:	e59f0274 	ldr	r0, [pc, #628]	; 1370 <RTS_STACK+0x370>
    10f8:	e1501fbf 	ldrh	r1, [r0, #-255]	; 0xffffff01
    10fc:	e1a0a421 	lsr	sl, r1, #8
    1100:	e20170ff 	and	r7, r1, #255	; 0xff
    1104:	e187251a 	orr	r2, r7, sl, lsl r5
    1108:	e59f3268 	ldr	r3, [pc, #616]	; 1378 <RTS_STACK+0x378>
    110c:	e583200c 	str	r2, [r3, #12]
    1110:	e2711001 	rsbs	r1, r1, #1
    1114:	33a01000 	movcc	r1, #0
    1118:	e5c31010 	strb	r1, [r3, #16]
    111c:	e3a0e000 	mov	lr, #0
    1120:	e1c3e1b2 	strh	lr, [r3, #18]
    1124:	e7963102 	ldr	r3, [r6, r2, lsl #2]
    1128:	e3c33001 	bic	r3, r3, #1
    112c:	e550c042 	ldrb	ip, [r0, #-66]	; 0xffffffbe
    1130:	e35c0001 	cmp	ip, #1
    1134:	93a05000 	movls	r5, #0
    1138:	9a00000f 	bls	117c <RTS_STACK+0x17c>
    113c:	e3a05000 	mov	r5, #0
    1140:	e3a01001 	mov	r1, #1
    1144:	e1a00001 	mov	r0, r1
    1148:	e59fb234 	ldr	fp, [pc, #564]	; 1384 <RTS_STACK+0x384>
    114c:	e59fe224 	ldr	lr, [pc, #548]	; 1378 <RTS_STACK+0x378>
    1150:	e0139110 	ands	r9, r3, r0, lsl r1
    1154:	0a000005 	beq	1170 <RTS_STACK+0x170>
    1158:	e7d1900b 	ldrb	r9, [r1, fp]
    115c:	e2899006 	add	r9, r9, #6
    1160:	e1855910 	orr	r5, r5, r0, lsl r9
    1164:	e59e9014 	ldr	r9, [lr, #20]
    1168:	e2899001 	add	r9, r9, #1
    116c:	e58e9014 	str	r9, [lr, #20]
    1170:	e2811001 	add	r1, r1, #1
    1174:	e151000c 	cmp	r1, ip
    1178:	3afffff4 	bcc	1150 <RTS_STACK+0x150>
    117c:	e3a00000 	mov	r0, #0
    1180:	e59f1200 	ldr	r1, [pc, #512]	; 1388 <RTS_STACK+0x388>
    1184:	eb000667 	bl	2b28 <io_printf>
    1188:	e35a0000 	cmp	sl, #0
    118c:	13a01000 	movne	r1, #0
    1190:	1a00000b 	bne	11c4 <RTS_STACK+0x1c4>
    1194:	e2483001 	sub	r3, r8, #1
    1198:	e1570003 	cmp	r7, r3
    119c:	23a01000 	movcs	r1, #0
    11a0:	2a000007 	bcs	11c4 <RTS_STACK+0x1c4>
    11a4:	e59f31cc 	ldr	r3, [pc, #460]	; 1378 <RTS_STACK+0x378>
    11a8:	e593300c 	ldr	r3, [r3, #12]
    11ac:	e2833001 	add	r3, r3, #1
    11b0:	e7961103 	ldr	r1, [r6, r3, lsl #2]
    11b4:	e3c11001 	bic	r1, r1, #1
    11b8:	e3510000 	cmp	r1, #0
    11bc:	13a01004 	movne	r1, #4
    11c0:	03a01000 	moveq	r1, #0
    11c4:	e2483001 	sub	r3, r8, #1
    11c8:	e15a0003 	cmp	sl, r3
    11cc:	23a0a000 	movcs	sl, #0
    11d0:	33a0a001 	movcc	sl, #1
    11d4:	e3570000 	cmp	r7, #0
    11d8:	13a02000 	movne	r2, #0
    11dc:	020a2001 	andeq	r2, sl, #1
    11e0:	e3520000 	cmp	r2, #0
    11e4:	0a000005 	beq	1200 <RTS_STACK+0x200>
    11e8:	e59f2188 	ldr	r2, [pc, #392]	; 1378 <RTS_STACK+0x378>
    11ec:	e592200c 	ldr	r2, [r2, #12]
    11f0:	e0882002 	add	r2, r8, r2
    11f4:	e7962102 	ldr	r2, [r6, r2, lsl #2]
    11f8:	e3d2e001 	bics	lr, r2, #1
    11fc:	13811001 	orrne	r1, r1, #1
    1200:	e1570003 	cmp	r7, r3
    1204:	2a000008 	bcs	122c <RTS_STACK+0x22c>
    1208:	e35a0000 	cmp	sl, #0
    120c:	0a000006 	beq	122c <RTS_STACK+0x22c>
    1210:	e59f3160 	ldr	r3, [pc, #352]	; 1378 <RTS_STACK+0x378>
    1214:	e593300c 	ldr	r3, [r3, #12]
    1218:	e0883003 	add	r3, r8, r3
    121c:	e2833001 	add	r3, r3, #1
    1220:	e7963103 	ldr	r3, [r6, r3, lsl #2]
    1224:	e3d30001 	bics	r0, r3, #1
    1228:	13811002 	orrne	r1, r1, #2
    122c:	e59f3144 	ldr	r3, [pc, #324]	; 1378 <RTS_STACK+0x378>
    1230:	e5d33010 	ldrb	r3, [r3, #16]
    1234:	e3530000 	cmp	r3, #0
    1238:	0a000016 	beq	1298 <RTS_STACK+0x298>
    123c:	e3540000 	cmp	r4, #0
    1240:	0a00000d 	beq	127c <RTS_STACK+0x27c>
    1244:	e59f312c 	ldr	r3, [pc, #300]	; 1378 <RTS_STACK+0x378>
    1248:	e593000c 	ldr	r0, [r3, #12]
    124c:	e3a03000 	mov	r3, #0
    1250:	e59fc11c 	ldr	ip, [pc, #284]	; 1374 <RTS_STACK+0x374>
    1254:	e1500003 	cmp	r0, r3
    1258:	0a000004 	beq	1270 <RTS_STACK+0x270>
    125c:	e7962103 	ldr	r2, [r6, r3, lsl #2]
    1260:	e3d28001 	bics	r8, r2, #1
    1264:	159c2008 	ldrne	r2, [ip, #8]
    1268:	12822001 	addne	r2, r2, #1
    126c:	158c2008 	strne	r2, [ip, #8]
    1270:	e2833001 	add	r3, r3, #1
    1274:	e1530004 	cmp	r3, r4
    1278:	1afffff5 	bne	1254 <RTS_STACK+0x254>
    127c:	e59f3108 	ldr	r3, [pc, #264]	; 138c <RTS_STACK+0x38c>
    1280:	e5933000 	ldr	r3, [r3]
    1284:	e2833006 	add	r3, r3, #6
    1288:	e3a06001 	mov	r6, #1
    128c:	e1a06316 	lsl	r6, r6, r3
    1290:	e1a0e001 	mov	lr, r1
    1294:	ea000011 	b	12e0 <RTS_STACK+0x2e0>
    1298:	e59f30ec 	ldr	r3, [pc, #236]	; 138c <RTS_STACK+0x38c>
    129c:	e5933000 	ldr	r3, [r3]
    12a0:	e2833006 	add	r3, r3, #6
    12a4:	e3a0e001 	mov	lr, #1
    12a8:	e181e31e 	orr	lr, r1, lr, lsl r3
    12ac:	e59f30c4 	ldr	r3, [pc, #196]	; 1378 <RTS_STACK+0x378>
    12b0:	e1d331b2 	ldrh	r3, [r3, #18]
    12b4:	e1a021a3 	lsr	r2, r3, #3
    12b8:	e1a02102 	lsl	r2, r2, #2
    12bc:	e28224f1 	add	r2, r2, #-251658240	; 0xf1000000
    12c0:	e2822801 	add	r2, r2, #65536	; 0x10000
    12c4:	e5922000 	ldr	r2, [r2]
    12c8:	e2033007 	and	r3, r3, #7
    12cc:	e0833083 	add	r3, r3, r3, lsl #1
    12d0:	e1a03332 	lsr	r3, r2, r3
    12d4:	e2033007 	and	r3, r3, #7
    12d8:	e3a06001 	mov	r6, #1
    12dc:	e1a06316 	lsl	r6, r6, r3
    12e0:	e59fc0a8 	ldr	ip, [pc, #168]	; 1390 <RTS_STACK+0x390>
    12e4:	e59f20a8 	ldr	r2, [pc, #168]	; 1394 <RTS_STACK+0x394>
    12e8:	e58c2004 	str	r2, [ip, #4]
    12ec:	e59f00a4 	ldr	r0, [pc, #164]	; 1398 <RTS_STACK+0x398>
    12f0:	e3e04000 	mvn	r4, #0
    12f4:	e5804004 	str	r4, [r0, #4]
    12f8:	e59f309c 	ldr	r3, [pc, #156]	; 139c <RTS_STACK+0x39c>
    12fc:	e583e004 	str	lr, [r3, #4]
    1300:	e59f7098 	ldr	r7, [pc, #152]	; 13a0 <RTS_STACK+0x3a0>
    1304:	e58c700c 	str	r7, [ip, #12]
    1308:	e580400c 	str	r4, [r0, #12]
    130c:	e583600c 	str	r6, [r3, #12]
    1310:	e59f808c 	ldr	r8, [pc, #140]	; 13a4 <RTS_STACK+0x3a4>
    1314:	e58c8000 	str	r8, [ip]
    1318:	e5804000 	str	r4, [r0]
    131c:	e1815005 	orr	r5, r1, r5
    1320:	e5835000 	str	r5, [r3]
    1324:	e58de000 	str	lr, [sp]
    1328:	e3a00000 	mov	r0, #0
    132c:	e59f1074 	ldr	r1, [pc, #116]	; 13a8 <RTS_STACK+0x3a8>
    1330:	e1a03004 	mov	r3, r4
    1334:	eb0005fb 	bl	2b28 <io_printf>
    1338:	e58d6000 	str	r6, [sp]
    133c:	e3a00000 	mov	r0, #0
    1340:	e59f1064 	ldr	r1, [pc, #100]	; 13ac <RTS_STACK+0x3ac>
    1344:	e1a02007 	mov	r2, r7
    1348:	e1a03004 	mov	r3, r4
    134c:	eb0005f5 	bl	2b28 <io_printf>
    1350:	e58d5000 	str	r5, [sp]
    1354:	e3a00000 	mov	r0, #0
    1358:	e59f1050 	ldr	r1, [pc, #80]	; 13b0 <RTS_STACK+0x3b0>
    135c:	e1a02008 	mov	r2, r8
    1360:	e1a03004 	mov	r3, r4
    1364:	eb0005ef 	bl	2b28 <io_printf>
    1368:	e28dd00c 	add	sp, sp, #12
    136c:	e8bd8ff0 	pop	{r4, r5, r6, r7, r8, r9, sl, fp, pc}
    1370:	f5007fff 	.word	0xf5007fff
    1374:	00400004 	.word	0x00400004
    1378:	00402f7c 	.word	0x00402f7c
    137c:	00002dc8 	.word	0x00002dc8
    1380:	00002dec 	.word	0x00002dec
    1384:	f5007fa8 	.word	0xf5007fa8
    1388:	00002e10 	.word	0x00002e10
    138c:	00400050 	.word	0x00400050
    1390:	f1008000 	.word	0xf1008000
    1394:	0ffff801 	.word	0x0ffff801
    1398:	f100c000 	.word	0xf100c000
    139c:	f1004000 	.word	0xf1004000
    13a0:	0ffff803 	.word	0x0ffff803
    13a4:	0ffff800 	.word	0x0ffff800
    13a8:	00002e38 	.word	0x00002e38
    13ac:	00002e68 	.word	0x00002e68
    13b0:	00002e98 	.word	0x00002e98

000013b4 <clean_up>:
    13b4:	e10f1000 	mrs	r1, CPSR
    13b8:	e38130c0 	orr	r3, r1, #192	; 0xc0
    13bc:	e121f003 	msr	CPSR_c, r3
    13c0:	e3a0241f 	mov	r2, #520093696	; 0x1f000000
    13c4:	e592300c 	ldr	r3, [r2, #12]
    13c8:	e3c33dc1 	bic	r3, r3, #12352	; 0x3040
    13cc:	e3c33012 	bic	r3, r3, #18
    13d0:	e582300c 	str	r3, [r2, #12]
    13d4:	e3a03000 	mov	r3, #0
    13d8:	e59f0050 	ldr	r0, [pc, #80]	; 1430 <clean_up+0x7c>
    13dc:	e5900000 	ldr	r0, [r0]
    13e0:	e583003c 	str	r0, [r3, #60]	; 0x3c
    13e4:	e59f0048 	ldr	r0, [pc, #72]	; 1434 <clean_up+0x80>
    13e8:	e582010c 	str	r0, [r2, #268]	; 0x10c
    13ec:	e59f2044 	ldr	r2, [pc, #68]	; 1438 <clean_up+0x84>
    13f0:	e5823000 	str	r3, [r2]
    13f4:	e5823008 	str	r3, [r2, #8]
    13f8:	e5823010 	str	r3, [r2, #16]
    13fc:	e5823018 	str	r3, [r2, #24]
    1400:	e5823020 	str	r3, [r2, #32]
    1404:	e3a00001 	mov	r0, #1
    1408:	e3a02411 	mov	r2, #285212672	; 0x11000000
    140c:	e582000c 	str	r0, [r2, #12]
    1410:	e3a02203 	mov	r2, #805306368	; 0x30000000
    1414:	e5823018 	str	r3, [r2, #24]
    1418:	e3a0303f 	mov	r3, #63	; 0x3f
    141c:	e5823010 	str	r3, [r2, #16]
    1420:	e3a0300d 	mov	r3, #13
    1424:	e5823010 	str	r3, [r2, #16]
    1428:	e121f001 	msr	CPSR_c, r1
    142c:	e12fff1e 	bx	lr
    1430:	00400020 	.word	0x00400020
    1434:	00000a20 	.word	0x00000a20
    1438:	004001ac 	.word	0x004001ac

0000143c <report_debug>:
    143c:	e92d4010 	push	{r4, lr}
    1440:	e59f3078 	ldr	r3, [pc, #120]	; 14c0 <report_debug+0x84>
    1444:	e5933004 	ldr	r3, [r3, #4]
    1448:	e3530001 	cmp	r3, #1
    144c:	0a000003 	beq	1460 <report_debug+0x24>
    1450:	e59f306c 	ldr	r3, [pc, #108]	; 14c4 <report_debug+0x88>
    1454:	e5d33008 	ldrb	r3, [r3, #8]
    1458:	e3530000 	cmp	r3, #0
    145c:	08bd8010 	popeq	{r4, pc}
    1460:	e3a044f1 	mov	r4, #-251658240	; 0xf1000000
    1464:	e5942304 	ldr	r2, [r4, #772]	; 0x304
    1468:	e3a00000 	mov	r0, #0
    146c:	e59f1054 	ldr	r1, [pc, #84]	; 14c8 <report_debug+0x8c>
    1470:	eb0005ac 	bl	2b28 <io_printf>
    1474:	e5942314 	ldr	r2, [r4, #788]	; 0x314
    1478:	e3a00000 	mov	r0, #0
    147c:	e59f1048 	ldr	r1, [pc, #72]	; 14cc <report_debug+0x90>
    1480:	eb0005a8 	bl	2b28 <io_printf>
    1484:	e59f3038 	ldr	r3, [pc, #56]	; 14c4 <report_debug+0x88>
    1488:	e5d33008 	ldrb	r3, [r3, #8]
    148c:	e3530000 	cmp	r3, #0
    1490:	08bd8010 	popeq	{r4, pc}
    1494:	e59f3034 	ldr	r3, [pc, #52]	; 14d0 <report_debug+0x94>
    1498:	e5932000 	ldr	r2, [r3]
    149c:	e3a00000 	mov	r0, #0
    14a0:	e59f102c 	ldr	r1, [pc, #44]	; 14d4 <report_debug+0x98>
    14a4:	eb00059f 	bl	2b28 <io_printf>
    14a8:	e3a03203 	mov	r3, #805306368	; 0x30000000
    14ac:	e5932040 	ldr	r2, [r3, #64]	; 0x40
    14b0:	e3a00000 	mov	r0, #0
    14b4:	e59f101c 	ldr	r1, [pc, #28]	; 14d8 <report_debug+0x9c>
    14b8:	eb00059a 	bl	2b28 <io_printf>
    14bc:	e8bd8010 	pop	{r4, pc}
    14c0:	00400004 	.word	0x00400004
    14c4:	00402f7c 	.word	0x00402f7c
    14c8:	00002ec4 	.word	0x00002ec4
    14cc:	00002eec 	.word	0x00002eec
    14d0:	0040005c 	.word	0x0040005c
    14d4:	00002f14 	.word	0x00002f14
    14d8:	00002f3c 	.word	0x00002f3c

000014dc <report_warns>:
    14dc:	e92d4008 	push	{r3, lr}
    14e0:	e59f3068 	ldr	r3, [pc, #104]	; 1550 <report_warns+0x74>
    14e4:	e5933018 	ldr	r3, [r3, #24]
    14e8:	e3130001 	tst	r3, #1
    14ec:	0a000004 	beq	1504 <report_warns+0x28>
    14f0:	e3a00000 	mov	r0, #0
    14f4:	e59f1058 	ldr	r1, [pc, #88]	; 1554 <report_warns+0x78>
    14f8:	e59f3050 	ldr	r3, [pc, #80]	; 1550 <report_warns+0x74>
    14fc:	e593201c 	ldr	r2, [r3, #28]
    1500:	eb000588 	bl	2b28 <io_printf>
    1504:	e59f3044 	ldr	r3, [pc, #68]	; 1550 <report_warns+0x74>
    1508:	e5933018 	ldr	r3, [r3, #24]
    150c:	e3130002 	tst	r3, #2
    1510:	0a000004 	beq	1528 <report_warns+0x4c>
    1514:	e3a00000 	mov	r0, #0
    1518:	e59f1038 	ldr	r1, [pc, #56]	; 1558 <report_warns+0x7c>
    151c:	e59f302c 	ldr	r3, [pc, #44]	; 1550 <report_warns+0x74>
    1520:	e5932020 	ldr	r2, [r3, #32]
    1524:	eb00057f 	bl	2b28 <io_printf>
    1528:	e59f3020 	ldr	r3, [pc, #32]	; 1550 <report_warns+0x74>
    152c:	e5933018 	ldr	r3, [r3, #24]
    1530:	e3130004 	tst	r3, #4
    1534:	08bd8008 	popeq	{r3, pc}
    1538:	e3a00000 	mov	r0, #0
    153c:	e59f1018 	ldr	r1, [pc, #24]	; 155c <report_warns+0x80>
    1540:	e59f3008 	ldr	r3, [pc, #8]	; 1550 <report_warns+0x74>
    1544:	e5932024 	ldr	r2, [r3, #36]	; 0x24
    1548:	eb000576 	bl	2b28 <io_printf>
    154c:	e8bd8008 	pop	{r3, pc}
    1550:	00402f7c 	.word	0x00402f7c
    1554:	00002f5c 	.word	0x00002f5c
    1558:	00002f88 	.word	0x00002f88
    155c:	00002fb4 	.word	0x00002fb4

00001560 <spin1_stop>:
    1560:	e59f2018 	ldr	r2, [pc, #24]	; 1580 <spin1_stop+0x20>
    1564:	e3a0341f 	mov	r3, #520093696	; 0x1f000000
    1568:	e5832014 	str	r2, [r3, #20]
    156c:	e59f3010 	ldr	r3, [pc, #16]	; 1584 <spin1_stop+0x24>
    1570:	e3a02000 	mov	r2, #0
    1574:	e5832028 	str	r2, [r3, #40]	; 0x28
    1578:	e583202c 	str	r2, [r3, #44]	; 0x2c
    157c:	e12fff1e 	bx	lr
    1580:	00003052 	.word	0x00003052
    1584:	00402f7c 	.word	0x00402f7c

00001588 <spin1_delay_us>:
    1588:	e59f3018 	ldr	r3, [pc, #24]	; 15a8 <spin1_delay_us+0x20>
    158c:	e1533dbf 	ldrh	r3, [r3, #-223]	; 0xffffff21
    1590:	e0030390 	mul	r3, r0, r3
    1594:	e1a03123 	lsr	r3, r3, #2
    1598:	e2433001 	sub	r3, r3, #1
    159c:	e3730001 	cmn	r3, #1
    15a0:	1afffffc 	bne	1598 <spin1_delay_us+0x10>
    15a4:	e12fff1e 	bx	lr
    15a8:	f5007fff 	.word	0xf5007fff

000015ac <spin1_dma_transfer>:
    15ac:	e92d05f0 	push	{r4, r5, r6, r7, r8, sl}
    15b0:	e10f8000 	mrs	r8, CPSR
    15b4:	e388c0c0 	orr	ip, r8, #192	; 0xc0
    15b8:	e121f00c 	msr	CPSR_c, ip
    15bc:	e59fc0b0 	ldr	ip, [pc, #176]	; 1674 <spin1_dma_transfer+0xc8>
    15c0:	e59c4004 	ldr	r4, [ip, #4]
    15c4:	e2846001 	add	r6, r4, #1
    15c8:	e206600f 	and	r6, r6, #15
    15cc:	e59c7000 	ldr	r7, [ip]
    15d0:	e1570006 	cmp	r7, r6
    15d4:	0a00001a 	beq	1644 <spin1_dma_transfer+0x98>
    15d8:	e59fc098 	ldr	ip, [pc, #152]	; 1678 <spin1_dma_transfer+0xcc>
    15dc:	e59c500c 	ldr	r5, [ip, #12]
    15e0:	e285a001 	add	sl, r5, #1
    15e4:	e58ca00c 	str	sl, [ip, #12]
    15e8:	e59dc018 	ldr	ip, [sp, #24]
    15ec:	e18c3983 	orr	r3, ip, r3, lsl #19
    15f0:	e3833506 	orr	r3, r3, #25165824	; 0x1800000
    15f4:	e084a104 	add	sl, r4, r4, lsl #2
    15f8:	e59fc074 	ldr	ip, [pc, #116]	; 1674 <spin1_dma_transfer+0xc8>
    15fc:	e08cc10a 	add	ip, ip, sl, lsl #2
    1600:	e58c5008 	str	r5, [ip, #8]
    1604:	e58c000c 	str	r0, [ip, #12]
    1608:	e58c1010 	str	r1, [ip, #16]
    160c:	e58c2014 	str	r2, [ip, #20]
    1610:	e58c3018 	str	r3, [ip, #24]
    1614:	e3a00203 	mov	r0, #805306368	; 0x30000000
    1618:	e5900014 	ldr	r0, [r0, #20]
    161c:	e3100004 	tst	r0, #4
    1620:	1a000004 	bne	1638 <spin1_dma_transfer+0x8c>
    1624:	e1540007 	cmp	r4, r7
    1628:	03a00203 	moveq	r0, #805306368	; 0x30000000
    162c:	05801004 	streq	r1, [r0, #4]
    1630:	05802008 	streq	r2, [r0, #8]
    1634:	0580300c 	streq	r3, [r0, #12]
    1638:	e59f3034 	ldr	r3, [pc, #52]	; 1674 <spin1_dma_transfer+0xc8>
    163c:	e5836004 	str	r6, [r3, #4]
    1640:	ea000007 	b	1664 <spin1_dma_transfer+0xb8>
    1644:	e59f3030 	ldr	r3, [pc, #48]	; 167c <spin1_dma_transfer+0xd0>
    1648:	e5932018 	ldr	r2, [r3, #24]
    164c:	e3822002 	orr	r2, r2, #2
    1650:	e5832018 	str	r2, [r3, #24]
    1654:	e5932020 	ldr	r2, [r3, #32]
    1658:	e2822001 	add	r2, r2, #1
    165c:	e5832020 	str	r2, [r3, #32]
    1660:	e3a05000 	mov	r5, #0
    1664:	e121f008 	msr	CPSR_c, r8
    1668:	e1a00005 	mov	r0, r5
    166c:	e8bd05f0 	pop	{r4, r5, r6, r7, r8, sl}
    1670:	e12fff1e 	bx	lr
    1674:	00400060 	.word	0x00400060
    1678:	00400004 	.word	0x00400004
    167c:	00402f7c 	.word	0x00402f7c

00001680 <spin1_memcpy>:
    1680:	e3520000 	cmp	r2, #0
    1684:	012fff1e 	bxeq	lr
    1688:	e1a03000 	mov	r3, r0
    168c:	e0800002 	add	r0, r0, r2
    1690:	e4d12001 	ldrb	r2, [r1], #1
    1694:	e4c32001 	strb	r2, [r3], #1
    1698:	e1530000 	cmp	r3, r0
    169c:	1afffffb 	bne	1690 <spin1_memcpy+0x10>
    16a0:	e12fff1e 	bx	lr

000016a4 <spin1_flush_rx_packet_queue>:
    16a4:	e52d4004 	push	{r4}		; (str r4, [sp, #-4]!)
    16a8:	e10f4000 	mrs	r4, CPSR
    16ac:	e3843080 	orr	r3, r4, #128	; 0x80
    16b0:	e121f003 	msr	CPSR_c, r3
    16b4:	e59f3040 	ldr	r3, [pc, #64]	; 16fc <spin1_flush_rx_packet_queue+0x58>
    16b8:	e8930009 	ldm	r3, {r0, r3}
    16bc:	e2433001 	sub	r3, r3, #1
    16c0:	e3a010c8 	mov	r1, #200	; 0xc8
    16c4:	e59f2034 	ldr	r2, [pc, #52]	; 1700 <spin1_flush_rx_packet_queue+0x5c>
    16c8:	e0232391 	mla	r3, r1, r3, r2
    16cc:	e3a02000 	mov	r2, #0
    16d0:	e1a0c002 	mov	ip, r2
    16d4:	e5931008 	ldr	r1, [r3, #8]
    16d8:	e1510000 	cmp	r1, r0
    16dc:	0583c008 	streq	ip, [r3, #8]
    16e0:	e2822001 	add	r2, r2, #1
    16e4:	e283300c 	add	r3, r3, #12
    16e8:	e3520010 	cmp	r2, #16
    16ec:	1afffff8 	bne	16d4 <spin1_flush_rx_packet_queue+0x30>
    16f0:	e121f004 	msr	CPSR_c, r4
    16f4:	e49d4004 	pop	{r4}		; (ldr r4, [sp], #4)
    16f8:	e12fff1e 	bx	lr
    16fc:	004001ac 	.word	0x004001ac
    1700:	00402fac 	.word	0x00402fac

00001704 <spin1_flush_tx_packet_queue>:
    1704:	e10f2000 	mrs	r2, CPSR
    1708:	e3823080 	orr	r3, r2, #128	; 0x80
    170c:	e121f003 	msr	CPSR_c, r3
    1710:	e59f300c 	ldr	r3, [pc, #12]	; 1724 <spin1_flush_tx_packet_queue+0x20>
    1714:	e5931004 	ldr	r1, [r3, #4]
    1718:	e5831000 	str	r1, [r3]
    171c:	e121f002 	msr	CPSR_c, r2
    1720:	e12fff1e 	bx	lr
    1724:	004001d4 	.word	0x004001d4

00001728 <send_mc_packet_fulfil>:
    1728:	e3520000 	cmp	r2, #0
    172c:	13a03201 	movne	r3, #268435456	; 0x10000000
    1730:	15831004 	strne	r1, [r3, #4]
    1734:	e3a03201 	mov	r3, #268435456	; 0x10000000
    1738:	e5830008 	str	r0, [r3, #8]
    173c:	e12fff1e 	bx	lr

00001740 <spin1_send_mc_packet>:
    1740:	e92d40f8 	push	{r3, r4, r5, r6, r7, lr}
    1744:	e1a05000 	mov	r5, r0
    1748:	e1a04001 	mov	r4, r1
    174c:	e1a06002 	mov	r6, r2
    1750:	e10f7000 	mrs	r7, CPSR
    1754:	e3873080 	orr	r3, r7, #128	; 0x80
    1758:	e121f003 	msr	CPSR_c, r3
    175c:	e3a03201 	mov	r3, #268435456	; 0x10000000
    1760:	e3a02000 	mov	r2, #0
    1764:	e5832000 	str	r2, [r3]
    1768:	e5933000 	ldr	r3, [r3]
    176c:	e3130101 	tst	r3, #1073741824	; 0x40000000
    1770:	0a00001b 	beq	17e4 <spin1_send_mc_packet+0xa4>
    1774:	e59f210c 	ldr	r2, [pc, #268]	; 1888 <spin1_send_mc_packet+0x148>
    1778:	e5923004 	ldr	r3, [r2, #4]
    177c:	e2831001 	add	r1, r3, #1
    1780:	e201100f 	and	r1, r1, #15
    1784:	e5922000 	ldr	r2, [r2]
    1788:	e1510002 	cmp	r1, r2
    178c:	1a000008 	bne	17b4 <spin1_send_mc_packet+0x74>
    1790:	e59f30f4 	ldr	r3, [pc, #244]	; 188c <spin1_send_mc_packet+0x14c>
    1794:	e5932018 	ldr	r2, [r3, #24]
    1798:	e3822004 	orr	r2, r2, #4
    179c:	e5832018 	str	r2, [r3, #24]
    17a0:	e5932024 	ldr	r2, [r3, #36]	; 0x24
    17a4:	e2822001 	add	r2, r2, #1
    17a8:	e5832024 	str	r2, [r3, #36]	; 0x24
    17ac:	e3a00000 	mov	r0, #0
    17b0:	ea000032 	b	1880 <spin1_send_mc_packet+0x140>
    17b4:	e59f20cc 	ldr	r2, [pc, #204]	; 1888 <spin1_send_mc_packet+0x148>
    17b8:	e0833083 	add	r3, r3, r3, lsl #1
    17bc:	e0823103 	add	r3, r2, r3, lsl #2
    17c0:	e5830008 	str	r0, [r3, #8]
    17c4:	e583400c 	str	r4, [r3, #12]
    17c8:	e5836010 	str	r6, [r3, #16]
    17cc:	e5821004 	str	r1, [r2, #4]
    17d0:	e3a02b02 	mov	r2, #2048	; 0x800
    17d4:	e3a0341f 	mov	r3, #520093696	; 0x1f000000
    17d8:	e5832010 	str	r2, [r3, #16]
    17dc:	e3a00001 	mov	r0, #1
    17e0:	ea000026 	b	1880 <spin1_send_mc_packet+0x140>
    17e4:	e59f309c 	ldr	r3, [pc, #156]	; 1888 <spin1_send_mc_packet+0x148>
    17e8:	e593c004 	ldr	ip, [r3, #4]
    17ec:	e28cc001 	add	ip, ip, #1
    17f0:	e20cc00f 	and	ip, ip, #15
    17f4:	e5933000 	ldr	r3, [r3]
    17f8:	e15c0003 	cmp	ip, r3
    17fc:	1a000008 	bne	1824 <spin1_send_mc_packet+0xe4>
    1800:	e59fe080 	ldr	lr, [pc, #128]	; 1888 <spin1_send_mc_packet+0x148>
    1804:	e08c308c 	add	r3, ip, ip, lsl #1
    1808:	e08e3103 	add	r3, lr, r3, lsl #2
    180c:	e2830008 	add	r0, r3, #8
    1810:	e8900007 	ldm	r0, {r0, r1, r2}
    1814:	e28cc001 	add	ip, ip, #1
    1818:	e20cc00f 	and	ip, ip, #15
    181c:	e58ec000 	str	ip, [lr]
    1820:	ebffffc0 	bl	1728 <send_mc_packet_fulfil>
    1824:	e59f205c 	ldr	r2, [pc, #92]	; 1888 <spin1_send_mc_packet+0x148>
    1828:	e892000c 	ldm	r2, {r2, r3}
    182c:	e1520003 	cmp	r2, r3
    1830:	1a000008 	bne	1858 <spin1_send_mc_packet+0x118>
    1834:	e1a00005 	mov	r0, r5
    1838:	e1a01004 	mov	r1, r4
    183c:	e1a02006 	mov	r2, r6
    1840:	ebffffb8 	bl	1728 <send_mc_packet_fulfil>
    1844:	e3a02b02 	mov	r2, #2048	; 0x800
    1848:	e3a0341f 	mov	r3, #520093696	; 0x1f000000
    184c:	e5832014 	str	r2, [r3, #20]
    1850:	e3a00001 	mov	r0, #1
    1854:	ea000009 	b	1880 <spin1_send_mc_packet+0x140>
    1858:	e59f1028 	ldr	r1, [pc, #40]	; 1888 <spin1_send_mc_packet+0x148>
    185c:	e0832083 	add	r2, r3, r3, lsl #1
    1860:	e0812102 	add	r2, r1, r2, lsl #2
    1864:	e5825008 	str	r5, [r2, #8]
    1868:	e582400c 	str	r4, [r2, #12]
    186c:	e5826010 	str	r6, [r2, #16]
    1870:	e2833001 	add	r3, r3, #1
    1874:	e203300f 	and	r3, r3, #15
    1878:	e5813004 	str	r3, [r1, #4]
    187c:	e3a00001 	mov	r0, #1
    1880:	e121f007 	msr	CPSR_c, r7
    1884:	e8bd80f8 	pop	{r3, r4, r5, r6, r7, pc}
    1888:	004001d4 	.word	0x004001d4
    188c:	00402f7c 	.word	0x00402f7c

00001890 <spin1_start>:
    1890:	e92d41f0 	push	{r4, r5, r6, r7, r8, lr}
    1894:	e24dd010 	sub	sp, sp, #16
    1898:	e3a01000 	mov	r1, #0
    189c:	e3a03201 	mov	r3, #268435456	; 0x10000000
    18a0:	e5831000 	str	r1, [r3]
    18a4:	e3a03203 	mov	r3, #805306368	; 0x30000000
    18a8:	e3a0203f 	mov	r2, #63	; 0x3f
    18ac:	e5832010 	str	r2, [r3, #16]
    18b0:	e3a0200d 	mov	r2, #13
    18b4:	e5832010 	str	r2, [r3, #16]
    18b8:	e3a02b03 	mov	r2, #3072	; 0xc00
    18bc:	e5832018 	str	r2, [r3, #24]
    18c0:	e3a02003 	mov	r2, #3
    18c4:	e5832028 	str	r2, [r3, #40]	; 0x28
    18c8:	e59f359c 	ldr	r3, [pc, #1436]	; 1e6c <spin1_start+0x5dc>
    18cc:	e5930004 	ldr	r0, [r3, #4]
    18d0:	e3a03411 	mov	r3, #285212672	; 0x11000000
    18d4:	e5831008 	str	r1, [r3, #8]
    18d8:	e3a02001 	mov	r2, #1
    18dc:	e583200c 	str	r2, [r3, #12]
    18e0:	e59f2588 	ldr	r2, [pc, #1416]	; 1e70 <spin1_start+0x5e0>
    18e4:	e1522dbf 	ldrh	r2, [r2, #-223]	; 0xffffff21
    18e8:	e0020290 	mul	r2, r0, r2
    18ec:	e5832000 	str	r2, [r3]
    18f0:	e5832018 	str	r2, [r3, #24]
    18f4:	e59f2578 	ldr	r2, [pc, #1400]	; 1e74 <spin1_start+0x5e4>
    18f8:	e3a0341f 	mov	r3, #520093696	; 0x1f000000
    18fc:	e5832014 	str	r2, [r3, #20]
    1900:	e59f3570 	ldr	r3, [pc, #1392]	; 1e78 <spin1_start+0x5e8>
    1904:	e5933000 	ldr	r3, [r3]
    1908:	e3530004 	cmp	r3, #4
    190c:	979ff103 	ldrls	pc, [pc, r3, lsl #2]
    1910:	ea000017 	b	1974 <spin1_start+0xe4>
    1914:	00001928 	.word	0x00001928
    1918:	00001938 	.word	0x00001938
    191c:	0000194c 	.word	0x0000194c
    1920:	00001974 	.word	0x00001974
    1924:	00001960 	.word	0x00001960
    1928:	e3a00000 	mov	r0, #0
    192c:	e59f3548 	ldr	r3, [pc, #1352]	; 1e7c <spin1_start+0x5ec>
    1930:	e580303c 	str	r3, [r0, #60]	; 0x3c
    1934:	ea00000f 	b	1978 <spin1_start+0xe8>
    1938:	e59f2540 	ldr	r2, [pc, #1344]	; 1e80 <spin1_start+0x5f0>
    193c:	e3a03000 	mov	r3, #0
    1940:	e583203c 	str	r2, [r3, #60]	; 0x3c
    1944:	e3a00a01 	mov	r0, #4096	; 0x1000
    1948:	ea00000a 	b	1978 <spin1_start+0xe8>
    194c:	e59f2530 	ldr	r2, [pc, #1328]	; 1e84 <spin1_start+0x5f4>
    1950:	e3a03000 	mov	r3, #0
    1954:	e583203c 	str	r2, [r3, #60]	; 0x3c
    1958:	e3a00010 	mov	r0, #16
    195c:	ea000005 	b	1978 <spin1_start+0xe8>
    1960:	e59f2520 	ldr	r2, [pc, #1312]	; 1e88 <spin1_start+0x5f8>
    1964:	e3a03000 	mov	r3, #0
    1968:	e583203c 	str	r2, [r3, #60]	; 0x3c
    196c:	e3a00002 	mov	r0, #2
    1970:	ea000000 	b	1978 <spin1_start+0xe8>
    1974:	e3a00000 	mov	r0, #0
    1978:	e3a0341f 	mov	r3, #520093696	; 0x1f000000
    197c:	e59f1508 	ldr	r1, [pc, #1288]	; 1e8c <spin1_start+0x5fc>
    1980:	e5831108 	str	r1, [r3, #264]	; 0x108
    1984:	e3a0102c 	mov	r1, #44	; 0x2c
    1988:	e5831208 	str	r1, [r3, #520]	; 0x208
    198c:	e59f14fc 	ldr	r1, [pc, #1276]	; 1e90 <spin1_start+0x600>
    1990:	e5831104 	str	r1, [r3, #260]	; 0x104
    1994:	e3a01024 	mov	r1, #36	; 0x24
    1998:	e5831204 	str	r1, [r3, #516]	; 0x204
    199c:	e59f14f0 	ldr	r1, [pc, #1264]	; 1e94 <spin1_start+0x604>
    19a0:	e5831110 	str	r1, [r3, #272]	; 0x110
    19a4:	e3a0102b 	mov	r1, #43	; 0x2b
    19a8:	e5831210 	str	r1, [r3, #528]	; 0x210
    19ac:	e59f14e4 	ldr	r1, [pc, #1252]	; 1e98 <spin1_start+0x608>
    19b0:	e5831114 	str	r1, [r3, #276]	; 0x114
    19b4:	e3a01021 	mov	r1, #33	; 0x21
    19b8:	e5831214 	str	r1, [r3, #532]	; 0x214
    19bc:	e593200c 	ldr	r2, [r3, #12]
    19c0:	e3c22a03 	bic	r2, r2, #12288	; 0x3000
    19c4:	e3c22012 	bic	r2, r2, #18
    19c8:	e1802002 	orr	r2, r0, r2
    19cc:	e583200c 	str	r2, [r3, #12]
    19d0:	e59f24c4 	ldr	r2, [pc, #1220]	; 1e9c <spin1_start+0x60c>
    19d4:	e5832010 	str	r2, [r3, #16]
    19d8:	e59f348c 	ldr	r3, [pc, #1164]	; 1e6c <spin1_start+0x5dc>
    19dc:	e3a02000 	mov	r2, #0
    19e0:	e5832018 	str	r2, [r3, #24]
    19e4:	e5832020 	str	r2, [r3, #32]
    19e8:	e583201c 	str	r2, [r3, #28]
    19ec:	e5832024 	str	r2, [r3, #36]	; 0x24
    19f0:	e59f3480 	ldr	r3, [pc, #1152]	; 1e78 <spin1_start+0x5e8>
    19f4:	e5933004 	ldr	r3, [r3, #4]
    19f8:	e3530001 	cmp	r3, #1
    19fc:	9a0000ad 	bls	1cb8 <spin1_start+0x428>
    1a00:	e59f4498 	ldr	r4, [pc, #1176]	; 1ea0 <spin1_start+0x610>
    1a04:	e59f3460 	ldr	r3, [pc, #1120]	; 1e6c <spin1_start+0x5dc>
    1a08:	e5d33008 	ldrb	r3, [r3, #8]
    1a0c:	e1530002 	cmp	r3, r2
    1a10:	0a000078 	beq	1bf8 <spin1_start+0x368>
    1a14:	e3e02041 	mvn	r2, #65	; 0x41
    1a18:	e59f3450 	ldr	r3, [pc, #1104]	; 1e70 <spin1_start+0x5e0>
    1a1c:	e5432043 	strb	r2, [r3, #-67]	; 0xffffffbd
    1a20:	e59f3444 	ldr	r3, [pc, #1092]	; 1e6c <spin1_start+0x5dc>
    1a24:	e5d33010 	ldrb	r3, [r3, #16]
    1a28:	e3530000 	cmp	r3, #0
    1a2c:	0a000040 	beq	1b34 <spin1_start+0x2a4>
    1a30:	e59f046c 	ldr	r0, [pc, #1132]	; 1ea4 <spin1_start+0x614>
    1a34:	e3a01000 	mov	r1, #0
    1a38:	e1a02001 	mov	r2, r1
    1a3c:	ebffff3f 	bl	1740 <spin1_send_mc_packet>
    1a40:	e5945000 	ldr	r5, [r4]
    1a44:	e1a01005 	mov	r1, r5
    1a48:	e59f6458 	ldr	r6, [pc, #1112]	; 1ea8 <spin1_start+0x618>
    1a4c:	e59f7418 	ldr	r7, [pc, #1048]	; 1e6c <spin1_start+0x5dc>
    1a50:	e59f8454 	ldr	r8, [pc, #1108]	; 1eac <spin1_start+0x61c>
    1a54:	ea000008 	b	1a7c <spin1_start+0x1ec>
    1a58:	e5943000 	ldr	r3, [r4]
    1a5c:	e0613003 	rsb	r3, r1, r3
    1a60:	e3530064 	cmp	r3, #100	; 0x64
    1a64:	9a000004 	bls	1a7c <spin1_start+0x1ec>
    1a68:	e59f0434 	ldr	r0, [pc, #1076]	; 1ea4 <spin1_start+0x614>
    1a6c:	e3a01000 	mov	r1, #0
    1a70:	e1a02001 	mov	r2, r1
    1a74:	ebffff31 	bl	1740 <spin1_send_mc_packet>
    1a78:	e5941000 	ldr	r1, [r4]
    1a7c:	e5942000 	ldr	r2, [r4]
    1a80:	e0652002 	rsb	r2, r5, r2
    1a84:	e59f3424 	ldr	r3, [pc, #1060]	; 1eb0 <spin1_start+0x620>
    1a88:	e1520003 	cmp	r2, r3
    1a8c:	8a000008 	bhi	1ab4 <spin1_start+0x224>
    1a90:	e5962000 	ldr	r2, [r6]
    1a94:	e5973014 	ldr	r3, [r7, #20]
    1a98:	e1520003 	cmp	r2, r3
    1a9c:	3affffed 	bcc	1a58 <spin1_start+0x1c8>
    1aa0:	e5982000 	ldr	r2, [r8]
    1aa4:	e59f33cc 	ldr	r3, [pc, #972]	; 1e78 <spin1_start+0x5e8>
    1aa8:	e5933008 	ldr	r3, [r3, #8]
    1aac:	e1520003 	cmp	r2, r3
    1ab0:	3affffe8 	bcc	1a58 <spin1_start+0x1c8>
    1ab4:	e59f33ec 	ldr	r3, [pc, #1004]	; 1ea8 <spin1_start+0x618>
    1ab8:	e5932000 	ldr	r2, [r3]
    1abc:	e59f33a8 	ldr	r3, [pc, #936]	; 1e6c <spin1_start+0x5dc>
    1ac0:	e5933014 	ldr	r3, [r3, #20]
    1ac4:	e1520003 	cmp	r2, r3
    1ac8:	1a000005 	bne	1ae4 <spin1_start+0x254>
    1acc:	e59f33d8 	ldr	r3, [pc, #984]	; 1eac <spin1_start+0x61c>
    1ad0:	e5932000 	ldr	r2, [r3]
    1ad4:	e59f339c 	ldr	r3, [pc, #924]	; 1e78 <spin1_start+0x5e8>
    1ad8:	e5933008 	ldr	r3, [r3, #8]
    1adc:	e1520003 	cmp	r2, r3
    1ae0:	0a00000e 	beq	1b20 <spin1_start+0x290>
    1ae4:	e59f3380 	ldr	r3, [pc, #896]	; 1e6c <spin1_start+0x5dc>
    1ae8:	e5932018 	ldr	r2, [r3, #24]
    1aec:	e3822010 	orr	r2, r2, #16
    1af0:	e5832018 	str	r2, [r3, #24]
    1af4:	e59f23ac 	ldr	r2, [pc, #940]	; 1ea8 <spin1_start+0x618>
    1af8:	e5922000 	ldr	r2, [r2]
    1afc:	e5933014 	ldr	r3, [r3, #20]
    1b00:	e59f13a4 	ldr	r1, [pc, #932]	; 1eac <spin1_start+0x61c>
    1b04:	e5910000 	ldr	r0, [r1]
    1b08:	e59f1368 	ldr	r1, [pc, #872]	; 1e78 <spin1_start+0x5e8>
    1b0c:	e5911008 	ldr	r1, [r1, #8]
    1b10:	e88d0003 	stm	sp, {r0, r1}
    1b14:	e3a00000 	mov	r0, #0
    1b18:	e59f1394 	ldr	r1, [pc, #916]	; 1eb4 <spin1_start+0x624>
    1b1c:	eb000401 	bl	2b28 <io_printf>
    1b20:	e59f0390 	ldr	r0, [pc, #912]	; 1eb8 <spin1_start+0x628>
    1b24:	e3a01000 	mov	r1, #0
    1b28:	e1a02001 	mov	r2, r1
    1b2c:	ebffff03 	bl	1740 <spin1_send_mc_packet>
    1b30:	ea00004a 	b	1c60 <spin1_start+0x3d0>
    1b34:	e594e000 	ldr	lr, [r4]
    1b38:	e59fc370 	ldr	ip, [pc, #880]	; 1eb0 <spin1_start+0x620>
    1b3c:	e59f0364 	ldr	r0, [pc, #868]	; 1ea8 <spin1_start+0x618>
    1b40:	e59f1324 	ldr	r1, [pc, #804]	; 1e6c <spin1_start+0x5dc>
    1b44:	e5943000 	ldr	r3, [r4]
    1b48:	e06e3003 	rsb	r3, lr, r3
    1b4c:	e153000c 	cmp	r3, ip
    1b50:	8a000006 	bhi	1b70 <spin1_start+0x2e0>
    1b54:	e5902000 	ldr	r2, [r0]
    1b58:	e5913014 	ldr	r3, [r1, #20]
    1b5c:	e1520003 	cmp	r2, r3
    1b60:	3afffff7 	bcc	1b44 <spin1_start+0x2b4>
    1b64:	e5913350 	ldr	r3, [r1, #848]	; 0x350
    1b68:	e3530000 	cmp	r3, #0
    1b6c:	0afffff4 	beq	1b44 <spin1_start+0x2b4>
    1b70:	e59f3330 	ldr	r3, [pc, #816]	; 1ea8 <spin1_start+0x618>
    1b74:	e5932000 	ldr	r2, [r3]
    1b78:	e59f32ec 	ldr	r3, [pc, #748]	; 1e6c <spin1_start+0x5dc>
    1b7c:	e5933014 	ldr	r3, [r3, #20]
    1b80:	e1520003 	cmp	r2, r3
    1b84:	0a000009 	beq	1bb0 <spin1_start+0x320>
    1b88:	e59f32dc 	ldr	r3, [pc, #732]	; 1e6c <spin1_start+0x5dc>
    1b8c:	e3a02010 	mov	r2, #16
    1b90:	e5832018 	str	r2, [r3, #24]
    1b94:	e59f230c 	ldr	r2, [pc, #780]	; 1ea8 <spin1_start+0x618>
    1b98:	e5922000 	ldr	r2, [r2]
    1b9c:	e5933014 	ldr	r3, [r3, #20]
    1ba0:	e3a00000 	mov	r0, #0
    1ba4:	e59f1310 	ldr	r1, [pc, #784]	; 1ebc <spin1_start+0x62c>
    1ba8:	eb0003de 	bl	2b28 <io_printf>
    1bac:	ea000009 	b	1bd8 <spin1_start+0x348>
    1bb0:	e59f32b4 	ldr	r3, [pc, #692]	; 1e6c <spin1_start+0x5dc>
    1bb4:	e5933350 	ldr	r3, [r3, #848]	; 0x350
    1bb8:	e3530000 	cmp	r3, #0
    1bbc:	1a000005 	bne	1bd8 <spin1_start+0x348>
    1bc0:	e3a02010 	mov	r2, #16
    1bc4:	e59f32a0 	ldr	r3, [pc, #672]	; 1e6c <spin1_start+0x5dc>
    1bc8:	e5832018 	str	r2, [r3, #24]
    1bcc:	e3a00000 	mov	r0, #0
    1bd0:	e59f12e8 	ldr	r1, [pc, #744]	; 1ec0 <spin1_start+0x630>
    1bd4:	eb0003d3 	bl	2b28 <io_printf>
    1bd8:	e59f02e4 	ldr	r0, [pc, #740]	; 1ec4 <spin1_start+0x634>
    1bdc:	e3a01000 	mov	r1, #0
    1be0:	e1a02001 	mov	r2, r1
    1be4:	ebfffed5 	bl	1740 <spin1_send_mc_packet>
    1be8:	e3a00000 	mov	r0, #0
    1bec:	e59f12d4 	ldr	r1, [pc, #724]	; 1ec8 <spin1_start+0x638>
    1bf0:	eb0003cc 	bl	2b28 <io_printf>
    1bf4:	ea000019 	b	1c60 <spin1_start+0x3d0>
    1bf8:	e5940000 	ldr	r0, [r4]
    1bfc:	e59f12c8 	ldr	r1, [pc, #712]	; 1ecc <spin1_start+0x63c>
    1c00:	e59f2268 	ldr	r2, [pc, #616]	; 1e70 <spin1_start+0x5e0>
    1c04:	e5943000 	ldr	r3, [r4]
    1c08:	e0603003 	rsb	r3, r0, r3
    1c0c:	e1530001 	cmp	r3, r1
    1c10:	8a000003 	bhi	1c24 <spin1_start+0x394>
    1c14:	e5523043 	ldrb	r3, [r2, #-67]	; 0xffffffbd
    1c18:	e20330ff 	and	r3, r3, #255	; 0xff
    1c1c:	e35300bd 	cmp	r3, #189	; 0xbd
    1c20:	9afffff7 	bls	1c04 <spin1_start+0x374>
    1c24:	e59f3244 	ldr	r3, [pc, #580]	; 1e70 <spin1_start+0x5e0>
    1c28:	e5533043 	ldrb	r3, [r3, #-67]	; 0xffffffbd
    1c2c:	e20330ff 	and	r3, r3, #255	; 0xff
    1c30:	e35300bd 	cmp	r3, #189	; 0xbd
    1c34:	8a000005 	bhi	1c50 <spin1_start+0x3c0>
    1c38:	e3a02010 	mov	r2, #16
    1c3c:	e59f3228 	ldr	r3, [pc, #552]	; 1e6c <spin1_start+0x5dc>
    1c40:	e5832018 	str	r2, [r3, #24]
    1c44:	e3a00000 	mov	r0, #0
    1c48:	e59f1280 	ldr	r1, [pc, #640]	; 1ed0 <spin1_start+0x640>
    1c4c:	eb0003b5 	bl	2b28 <io_printf>
    1c50:	e59f027c 	ldr	r0, [pc, #636]	; 1ed4 <spin1_start+0x644>
    1c54:	e3a01000 	mov	r1, #0
    1c58:	e1a02001 	mov	r2, r1
    1c5c:	ebfffeb7 	bl	1740 <spin1_send_mc_packet>
    1c60:	e5940000 	ldr	r0, [r4]
    1c64:	e59f1260 	ldr	r1, [pc, #608]	; 1ecc <spin1_start+0x63c>
    1c68:	e59f21fc 	ldr	r2, [pc, #508]	; 1e6c <spin1_start+0x5dc>
    1c6c:	e5943000 	ldr	r3, [r4]
    1c70:	e0603003 	rsb	r3, r0, r3
    1c74:	e1530001 	cmp	r3, r1
    1c78:	8a000002 	bhi	1c88 <spin1_start+0x3f8>
    1c7c:	e5923354 	ldr	r3, [r2, #852]	; 0x354
    1c80:	e3530000 	cmp	r3, #0
    1c84:	0afffff8 	beq	1c6c <spin1_start+0x3dc>
    1c88:	e59f31dc 	ldr	r3, [pc, #476]	; 1e6c <spin1_start+0x5dc>
    1c8c:	e5933354 	ldr	r3, [r3, #852]	; 0x354
    1c90:	e3530000 	cmp	r3, #0
    1c94:	1a000011 	bne	1ce0 <spin1_start+0x450>
    1c98:	e59f31cc 	ldr	r3, [pc, #460]	; 1e6c <spin1_start+0x5dc>
    1c9c:	e5932018 	ldr	r2, [r3, #24]
    1ca0:	e3822010 	orr	r2, r2, #16
    1ca4:	e5832018 	str	r2, [r3, #24]
    1ca8:	e3a00000 	mov	r0, #0
    1cac:	e59f1224 	ldr	r1, [pc, #548]	; 1ed8 <spin1_start+0x648>
    1cb0:	eb00039c 	bl	2b28 <io_printf>
    1cb4:	ea000009 	b	1ce0 <spin1_start+0x450>
    1cb8:	e59f321c 	ldr	r3, [pc, #540]	; 1edc <spin1_start+0x64c>
    1cbc:	e5933004 	ldr	r3, [r3, #4]
    1cc0:	e3530000 	cmp	r3, #0
    1cc4:	b3a0341f 	movlt	r3, #520093696	; 0x1f000000
    1cc8:	b593200c 	ldrlt	r2, [r3, #12]
    1ccc:	b3822040 	orrlt	r2, r2, #64	; 0x40
    1cd0:	b583200c 	strlt	r2, [r3, #12]
    1cd4:	a59f2204 	ldrge	r2, [pc, #516]	; 1ee0 <spin1_start+0x650>
    1cd8:	a3a0341f 	movge	r3, #520093696	; 0x1f000000
    1cdc:	a583210c 	strge	r2, [r3, #268]	; 0x10c
    1ce0:	e59f3184 	ldr	r3, [pc, #388]	; 1e6c <spin1_start+0x5dc>
    1ce4:	e5933004 	ldr	r3, [r3, #4]
    1ce8:	e3530000 	cmp	r3, #0
    1cec:	13a020e2 	movne	r2, #226	; 0xe2
    1cf0:	13a03411 	movne	r3, #285212672	; 0x11000000
    1cf4:	15832008 	strne	r2, [r3, #8]
    1cf8:	e59f316c 	ldr	r3, [pc, #364]	; 1e6c <spin1_start+0x5dc>
    1cfc:	e3a02000 	mov	r2, #0
    1d00:	e5832000 	str	r2, [r3]
    1d04:	e3a02001 	mov	r2, #1
    1d08:	e583202c 	str	r2, [r3, #44]	; 0x2c
    1d0c:	e1a04003 	mov	r4, r3
    1d10:	e3a06000 	mov	r6, #0
    1d14:	ea00002d 	b	1dd0 <spin1_start+0x540>
    1d18:	e10fe000 	mrs	lr, CPSR
    1d1c:	e38e30c0 	orr	r3, lr, #192	; 0xc0
    1d20:	e121f003 	msr	CPSR_c, r3
    1d24:	e1a03006 	mov	r3, r6
    1d28:	e3a050c8 	mov	r5, #200	; 0xc8
    1d2c:	ea00001d 	b	1da8 <spin1_start+0x518>
    1d30:	e283c001 	add	ip, r3, #1
    1d34:	e0214395 	mla	r1, r5, r3, r4
    1d38:	e5912030 	ldr	r2, [r1, #48]	; 0x30
    1d3c:	e5911034 	ldr	r1, [r1, #52]	; 0x34
    1d40:	e1520001 	cmp	r2, r1
    1d44:	01a0300c 	moveq	r3, ip
    1d48:	0a000016 	beq	1da8 <spin1_start+0x518>
    1d4c:	e0821082 	add	r1, r2, r2, lsl #1
    1d50:	e0030395 	mul	r3, r5, r3
    1d54:	e0831101 	add	r1, r3, r1, lsl #2
    1d58:	e0841001 	add	r1, r4, r1
    1d5c:	e5910038 	ldr	r0, [r1, #56]	; 0x38
    1d60:	e58d000c 	str	r0, [sp, #12]
    1d64:	e591003c 	ldr	r0, [r1, #60]	; 0x3c
    1d68:	e5911040 	ldr	r1, [r1, #64]	; 0x40
    1d6c:	e0843003 	add	r3, r4, r3
    1d70:	e2822001 	add	r2, r2, #1
    1d74:	e202200f 	and	r2, r2, #15
    1d78:	e5832030 	str	r2, [r3, #48]	; 0x30
    1d7c:	e59d300c 	ldr	r3, [sp, #12]
    1d80:	e3530000 	cmp	r3, #0
    1d84:	01a0300c 	moveq	r3, ip
    1d88:	0a000006 	beq	1da8 <spin1_start+0x518>
    1d8c:	e121f00e 	msr	CPSR_c, lr
    1d90:	e59d300c 	ldr	r3, [sp, #12]
    1d94:	e12fff33 	blx	r3
    1d98:	e10fe000 	mrs	lr, CPSR
    1d9c:	e38e30c0 	orr	r3, lr, #192	; 0xc0
    1da0:	e121f003 	msr	CPSR_c, r3
    1da4:	e1a03006 	mov	r3, r6
    1da8:	e594202c 	ldr	r2, [r4, #44]	; 0x2c
    1dac:	e3520000 	cmp	r2, #0
    1db0:	0a000001 	beq	1dbc <spin1_start+0x52c>
    1db4:	e3530003 	cmp	r3, #3
    1db8:	9affffdc 	bls	1d30 <spin1_start+0x4a0>
    1dbc:	e594302c 	ldr	r3, [r4, #44]	; 0x2c
    1dc0:	e3530000 	cmp	r3, #0
    1dc4:	0a000001 	beq	1dd0 <spin1_start+0x540>
    1dc8:	ee070f90 	mcr	15, 0, r0, cr7, cr0, {4}
    1dcc:	e121f00e 	msr	CPSR_c, lr
    1dd0:	e594302c 	ldr	r3, [r4, #44]	; 0x2c
    1dd4:	e3530000 	cmp	r3, #0
    1dd8:	1affffce 	bne	1d18 <spin1_start+0x488>
    1ddc:	ebfffd74 	bl	13b4 <clean_up>
    1de0:	e10f3000 	mrs	r3, CPSR
    1de4:	e3c32080 	bic	r2, r3, #128	; 0x80
    1de8:	e121f002 	msr	CPSR_c, r2
    1dec:	e59f4078 	ldr	r4, [pc, #120]	; 1e6c <spin1_start+0x5dc>
    1df0:	e5942028 	ldr	r2, [r4, #40]	; 0x28
    1df4:	e59f30e8 	ldr	r3, [pc, #232]	; 1ee4 <spin1_start+0x654>
    1df8:	e5832000 	str	r2, [r3]
    1dfc:	e5942018 	ldr	r2, [r4, #24]
    1e00:	e5832004 	str	r2, [r3, #4]
    1e04:	e3a024f1 	mov	r2, #-251658240	; 0xf1000000
    1e08:	e5921304 	ldr	r1, [r2, #772]	; 0x304
    1e0c:	e5831008 	str	r1, [r3, #8]
    1e10:	e5922314 	ldr	r2, [r2, #788]	; 0x314
    1e14:	e583200c 	str	r2, [r3, #12]
    1e18:	e59f20c8 	ldr	r2, [pc, #200]	; 1ee8 <spin1_start+0x658>
    1e1c:	e5922000 	ldr	r2, [r2]
    1e20:	e5832010 	str	r2, [r3, #16]
    1e24:	e59f204c 	ldr	r2, [pc, #76]	; 1e78 <spin1_start+0x5e8>
    1e28:	e592200c 	ldr	r2, [r2, #12]
    1e2c:	e2422001 	sub	r2, r2, #1
    1e30:	e5832014 	str	r2, [r3, #20]
    1e34:	e3a02203 	mov	r2, #805306368	; 0x30000000
    1e38:	e5922040 	ldr	r2, [r2, #64]	; 0x40
    1e3c:	e5832018 	str	r2, [r3, #24]
    1e40:	e5942020 	ldr	r2, [r4, #32]
    1e44:	e583201c 	str	r2, [r3, #28]
    1e48:	e594201c 	ldr	r2, [r4, #28]
    1e4c:	e5832020 	str	r2, [r3, #32]
    1e50:	e5942024 	ldr	r2, [r4, #36]	; 0x24
    1e54:	e5832024 	str	r2, [r3, #36]	; 0x24
    1e58:	ebfffd77 	bl	143c <report_debug>
    1e5c:	ebfffd9e 	bl	14dc <report_warns>
    1e60:	e5940028 	ldr	r0, [r4, #40]	; 0x28
    1e64:	e28dd010 	add	sp, sp, #16
    1e68:	e8bd81f0 	pop	{r4, r5, r6, r7, r8, pc}
    1e6c:	00402f7c 	.word	0x00402f7c
    1e70:	f5007fff 	.word	0xf5007fff
    1e74:	00003012 	.word	0x00003012
    1e78:	00400004 	.word	0x00400004
    1e7c:	00000d8c 	.word	0x00000d8c
    1e80:	00000db4 	.word	0x00000db4
    1e84:	00000e38 	.word	0x00000e38
    1e88:	00000e7c 	.word	0x00000e7c
    1e8c:	00000c2c 	.word	0x00000c2c
    1e90:	00000cc4 	.word	0x00000cc4
    1e94:	00000b68 	.word	0x00000b68
    1e98:	00000d24 	.word	0x00000d24
    1e9c:	00001012 	.word	0x00001012
    1ea0:	f5007f10 	.word	0xf5007f10
    1ea4:	0ffff801 	.word	0x0ffff801
    1ea8:	00400018 	.word	0x00400018
    1eac:	0040001c 	.word	0x0040001c
    1eb0:	000009c3 	.word	0x000009c3
    1eb4:	00002fe4 	.word	0x00002fe4
    1eb8:	0ffff800 	.word	0x0ffff800
    1ebc:	00003024 	.word	0x00003024
    1ec0:	0000305c 	.word	0x0000305c
    1ec4:	0ffff803 	.word	0x0ffff803
    1ec8:	00003094 	.word	0x00003094
    1ecc:	00001387 	.word	0x00001387
    1ed0:	000030b4 	.word	0x000030b4
    1ed4:	0ffff802 	.word	0x0ffff802
    1ed8:	000030ec 	.word	0x000030ec
    1edc:	004001ac 	.word	0x004001ac
    1ee0:	00000a20 	.word	0x00000a20
    1ee4:	00400024 	.word	0x00400024
    1ee8:	0040005c 	.word	0x0040005c

00001eec <spin1_irq_disable>:
    1eec:	e10f0000 	mrs	r0, CPSR
    1ef0:	e3803080 	orr	r3, r0, #128	; 0x80
    1ef4:	e121f003 	msr	CPSR_c, r3
    1ef8:	e12fff1e 	bx	lr

00001efc <spin1_mode_restore>:
    1efc:	e121f000 	msr	CPSR_c, r0
    1f00:	e12fff1e 	bx	lr

00001f04 <irq_enable>:
    1f04:	e10f0000 	mrs	r0, CPSR
    1f08:	e3c03080 	bic	r3, r0, #128	; 0x80
    1f0c:	e121f003 	msr	CPSR_c, r3
    1f10:	e12fff1e 	bx	lr

00001f14 <wait_for_irq>:
    1f14:	ee070f90 	mcr	15, 0, r0, cr7, cr0, {4}
    1f18:	e12fff1e 	bx	lr

00001f1c <spin1_fiq_disable>:
    1f1c:	e10f0000 	mrs	r0, CPSR
    1f20:	e3803040 	orr	r3, r0, #64	; 0x40
    1f24:	e121f003 	msr	CPSR_c, r3
    1f28:	e12fff1e 	bx	lr

00001f2c <spin1_int_disable>:
    1f2c:	e10f0000 	mrs	r0, CPSR
    1f30:	e38030c0 	orr	r3, r0, #192	; 0xc0
    1f34:	e121f003 	msr	CPSR_c, r3
    1f38:	e12fff1e 	bx	lr

00001f3c <spin1_get_id>:
    1f3c:	e59f3010 	ldr	r3, [pc, #16]	; 1f54 <spin1_get_id+0x18>
    1f40:	e1530fbf 	ldrh	r0, [r3, #-255]	; 0xffffff01
    1f44:	e59f300c 	ldr	r3, [pc, #12]	; 1f58 <spin1_get_id+0x1c>
    1f48:	e5933000 	ldr	r3, [r3]
    1f4c:	e1830280 	orr	r0, r3, r0, lsl #5
    1f50:	e12fff1e 	bx	lr
    1f54:	f5007fff 	.word	0xf5007fff
    1f58:	00400058 	.word	0x00400058

00001f5c <spin1_get_core_id>:
    1f5c:	e59f3004 	ldr	r3, [pc, #4]	; 1f68 <spin1_get_core_id+0xc>
    1f60:	e5930000 	ldr	r0, [r3]
    1f64:	e12fff1e 	bx	lr
    1f68:	00400058 	.word	0x00400058

00001f6c <spin1_get_chip_id>:
    1f6c:	e59f3004 	ldr	r3, [pc, #4]	; 1f78 <spin1_get_chip_id+0xc>
    1f70:	e1530fbf 	ldrh	r0, [r3, #-255]	; 0xffffff01
    1f74:	e12fff1e 	bx	lr
    1f78:	f5007fff 	.word	0xf5007fff

00001f7c <spin1_set_mc_table_entry>:
    1f7c:	e92d41f0 	push	{r4, r5, r6, r7, r8, lr}
    1f80:	e24dd008 	sub	sp, sp, #8
    1f84:	e1a0c001 	mov	ip, r1
    1f88:	e3500ffa 	cmp	r0, #1000	; 0x3e8
    1f8c:	23a00000 	movcs	r0, #0
    1f90:	2a000024 	bcs	2028 <IPTAG_ARP+0x28>
    1f94:	e203503f 	and	r5, r3, #63	; 0x3f
    1f98:	e59f1090 	ldr	r1, [pc, #144]	; 2030 <IPTAG_ARP+0x30>
    1f9c:	e5516042 	ldrb	r6, [r1, #-66]	; 0xffffffbe
    1fa0:	e3560000 	cmp	r6, #0
    1fa4:	0a00000a 	beq	1fd4 <spin1_set_mc_table_entry+0x58>
    1fa8:	e2866006 	add	r6, r6, #6
    1fac:	e3a01006 	mov	r1, #6
    1fb0:	e3a04001 	mov	r4, #1
    1fb4:	e59f8078 	ldr	r8, [pc, #120]	; 2034 <IPTAG_ARP+0x34>
    1fb8:	e0137114 	ands	r7, r3, r4, lsl r1
    1fbc:	17d17008 	ldrbne	r7, [r1, r8]
    1fc0:	12877006 	addne	r7, r7, #6
    1fc4:	11855714 	orrne	r5, r5, r4, lsl r7
    1fc8:	e2811001 	add	r1, r1, #1
    1fcc:	e1510006 	cmp	r1, r6
    1fd0:	1afffff8 	bne	1fb8 <spin1_set_mc_table_entry+0x3c>
    1fd4:	e2803018 	add	r3, r0, #24
    1fd8:	e1a01103 	lsl	r1, r3, #2
    1fdc:	e28114f1 	add	r1, r1, #-251658240	; 0xf1000000
    1fe0:	e2810902 	add	r0, r1, #32768	; 0x8000
    1fe4:	e580c000 	str	ip, [r0]
    1fe8:	e2810903 	add	r0, r1, #49152	; 0xc000
    1fec:	e5802000 	str	r2, [r0]
    1ff0:	e2811901 	add	r1, r1, #16384	; 0x4000
    1ff4:	e5815000 	str	r5, [r1]
    1ff8:	e59f1038 	ldr	r1, [pc, #56]	; 2038 <IPTAG_ARP+0x38>
    1ffc:	e5d11008 	ldrb	r1, [r1, #8]
    2000:	e3510000 	cmp	r1, #0
    2004:	03a00001 	moveq	r0, #1
    2008:	0a000006 	beq	2028 <IPTAG_ARP+0x28>
    200c:	e88d0024 	stm	sp, {r2, r5}
    2010:	e3a00000 	mov	r0, #0
    2014:	e59f1020 	ldr	r1, [pc, #32]	; 203c <IPTAG_ARP+0x3c>
    2018:	e1a02003 	mov	r2, r3
    201c:	e1a0300c 	mov	r3, ip
    2020:	eb0002c0 	bl	2b28 <io_printf>
    2024:	e3a00001 	mov	r0, #1
    2028:	e28dd008 	add	sp, sp, #8
    202c:	e8bd81f0 	pop	{r4, r5, r6, r7, r8, pc}
    2030:	f5007fff 	.word	0xf5007fff
    2034:	f5007fa2 	.word	0xf5007fa2
    2038:	00402f7c 	.word	0x00402f7c
    203c:	00003124 	.word	0x00003124

00002040 <spin1_led_control>:
    2040:	e92d0070 	push	{r4, r5, r6}
    2044:	e59f3068 	ldr	r3, [pc, #104]	; 20b4 <spin1_led_control+0x74>
    2048:	e55330f5 	ldrb	r3, [r3, #-245]	; 0xffffff0b
    204c:	e3530000 	cmp	r3, #0
    2050:	13a05002 	movne	r5, #2
    2054:	03a05003 	moveq	r5, #3
    2058:	e59f3058 	ldr	r3, [pc, #88]	; 20b8 <spin1_led_control+0x78>
    205c:	e2831008 	add	r1, r3, #8
    2060:	01a01003 	moveq	r1, r3
    2064:	e3a03001 	mov	r3, #1
    2068:	e3a064f2 	mov	r6, #-234881024	; 0xf2000000
    206c:	e1f140b2 	ldrh	r4, [r1, #2]!
    2070:	e2002001 	and	r2, r0, #1
    2074:	e200c002 	and	ip, r0, #2
    2078:	e1a00120 	lsr	r0, r0, #2
    207c:	e35c0000 	cmp	ip, #0
    2080:	1a000003 	bne	2094 <spin1_led_control+0x54>
    2084:	e3520000 	cmp	r2, #0
    2088:	0a000004 	beq	20a0 <spin1_led_control+0x60>
    208c:	e5962040 	ldr	r2, [r6, #64]	; 0x40
    2090:	e0042002 	and	r2, r4, r2
    2094:	e3520000 	cmp	r2, #0
    2098:	1586404c 	strne	r4, [r6, #76]	; 0x4c
    209c:	05864048 	streq	r4, [r6, #72]	; 0x48
    20a0:	e2833001 	add	r3, r3, #1
    20a4:	e1550003 	cmp	r5, r3
    20a8:	2affffef 	bcs	206c <spin1_led_control+0x2c>
    20ac:	e8bd0070 	pop	{r4, r5, r6}
    20b0:	e12fff1e 	bx	lr
    20b4:	f5007fff 	.word	0xf5007fff
    20b8:	00002d8c 	.word	0x00002d8c

000020bc <spin1_kill>:
    20bc:	e92d4010 	push	{r4, lr}
    20c0:	e1a04000 	mov	r4, r0
    20c4:	e59f2020 	ldr	r2, [pc, #32]	; 20ec <spin1_kill+0x30>
    20c8:	e3a0341f 	mov	r3, #520093696	; 0x1f000000
    20cc:	e5832014 	str	r2, [r3, #20]
    20d0:	e3a0000c 	mov	r0, #12
    20d4:	ebffffd9 	bl	2040 <spin1_led_control>
    20d8:	e59f3010 	ldr	r3, [pc, #16]	; 20f0 <spin1_kill+0x34>
    20dc:	e5834028 	str	r4, [r3, #40]	; 0x28
    20e0:	e3a02000 	mov	r2, #0
    20e4:	e583202c 	str	r2, [r3, #44]	; 0x2c
    20e8:	e8bd8010 	pop	{r4, pc}
    20ec:	00003052 	.word	0x00003052
    20f0:	00402f7c 	.word	0x00402f7c

000020f4 <spin1_malloc>:
    20f4:	e59f3028 	ldr	r3, [pc, #40]	; 2124 <spin1_malloc+0x30>
    20f8:	e5933010 	ldr	r3, [r3, #16]
    20fc:	e0830000 	add	r0, r3, r0
    2100:	e59f2020 	ldr	r2, [pc, #32]	; 2128 <spin1_malloc+0x34>
    2104:	e1500002 	cmp	r0, r2
    2108:	92800003 	addls	r0, r0, #3
    210c:	93c00003 	bicls	r0, r0, #3
    2110:	959f200c 	ldrls	r2, [pc, #12]	; 2124 <spin1_malloc+0x30>
    2114:	95820010 	strls	r0, [r2, #16]
    2118:	83a03000 	movhi	r3, #0
    211c:	e1a00003 	mov	r0, r3
    2120:	e12fff1e 	bx	lr
    2124:	00400004 	.word	0x00400004
    2128:	0040f000 	.word	0x0040f000

0000212c <schedule_sysmode>:
    212c:	e92d4070 	push	{r4, r5, r6, lr}
    2130:	e59f30d0 	ldr	r3, [pc, #208]	; 2208 <schedule_sysmode+0xdc>
    2134:	e0833180 	add	r3, r3, r0, lsl #3
    2138:	e5933004 	ldr	r3, [r3, #4]
    213c:	e3530000 	cmp	r3, #0
    2140:	ca000005 	bgt	215c <schedule_sysmode+0x30>
    2144:	e59f30bc 	ldr	r3, [pc, #188]	; 2208 <schedule_sysmode+0xdc>
    2148:	e7933180 	ldr	r3, [r3, r0, lsl #3]
    214c:	e1a00001 	mov	r0, r1
    2150:	e1a01002 	mov	r1, r2
    2154:	e12fff33 	blx	r3
    2158:	e8bd8070 	pop	{r4, r5, r6, pc}
    215c:	e2434001 	sub	r4, r3, #1
    2160:	e3a050c8 	mov	r5, #200	; 0xc8
    2164:	e59f30a0 	ldr	r3, [pc, #160]	; 220c <schedule_sysmode+0xe0>
    2168:	e0253594 	mla	r5, r4, r5, r3
    216c:	e5953034 	ldr	r3, [r5, #52]	; 0x34
    2170:	e2836001 	add	r6, r3, #1
    2174:	e206600f 	and	r6, r6, #15
    2178:	e595c030 	ldr	ip, [r5, #48]	; 0x30
    217c:	e156000c 	cmp	r6, ip
    2180:	0a000018 	beq	21e8 <schedule_sysmode+0xbc>
    2184:	e59fc080 	ldr	ip, [pc, #128]	; 220c <schedule_sysmode+0xe0>
    2188:	e0833083 	add	r3, r3, r3, lsl #1
    218c:	e3a050c8 	mov	r5, #200	; 0xc8
    2190:	e0040495 	mul	r4, r5, r4
    2194:	e0843103 	add	r3, r4, r3, lsl #2
    2198:	e08c3003 	add	r3, ip, r3
    219c:	e59f5064 	ldr	r5, [pc, #100]	; 2208 <schedule_sysmode+0xdc>
    21a0:	e7950180 	ldr	r0, [r5, r0, lsl #3]
    21a4:	e5830038 	str	r0, [r3, #56]	; 0x38
    21a8:	e08c0004 	add	r0, ip, r4
    21ac:	e5903034 	ldr	r3, [r0, #52]	; 0x34
    21b0:	e0833083 	add	r3, r3, r3, lsl #1
    21b4:	e0843103 	add	r3, r4, r3, lsl #2
    21b8:	e08c3003 	add	r3, ip, r3
    21bc:	e583103c 	str	r1, [r3, #60]	; 0x3c
    21c0:	e5903034 	ldr	r3, [r0, #52]	; 0x34
    21c4:	e0833083 	add	r3, r3, r3, lsl #1
    21c8:	e0844103 	add	r4, r4, r3, lsl #2
    21cc:	e08cc004 	add	ip, ip, r4
    21d0:	e58c2040 	str	r2, [ip, #64]	; 0x40
    21d4:	e5903034 	ldr	r3, [r0, #52]	; 0x34
    21d8:	e2833001 	add	r3, r3, #1
    21dc:	e203300f 	and	r3, r3, #15
    21e0:	e5803034 	str	r3, [r0, #52]	; 0x34
    21e4:	e8bd8070 	pop	{r4, r5, r6, pc}
    21e8:	e59f301c 	ldr	r3, [pc, #28]	; 220c <schedule_sysmode+0xe0>
    21ec:	e5932018 	ldr	r2, [r3, #24]
    21f0:	e3822001 	orr	r2, r2, #1
    21f4:	e5832018 	str	r2, [r3, #24]
    21f8:	e593201c 	ldr	r2, [r3, #28]
    21fc:	e2822001 	add	r2, r2, #1
    2200:	e583201c 	str	r2, [r3, #28]
    2204:	e8bd8070 	pop	{r4, r5, r6, pc}
    2208:	004001ac 	.word	0x004001ac
    220c:	00402f7c 	.word	0x00402f7c

00002210 <spin1_schedule_callback>:
    2210:	e92d00f0 	push	{r4, r5, r6, r7}
    2214:	e10f6000 	mrs	r6, CPSR
    2218:	e386c080 	orr	ip, r6, #128	; 0x80
    221c:	e121f00c 	msr	CPSR_c, ip
    2220:	e2433001 	sub	r3, r3, #1
    2224:	e3a050c8 	mov	r5, #200	; 0xc8
    2228:	e59fc0a4 	ldr	ip, [pc, #164]	; 22d4 <spin1_schedule_callback+0xc4>
    222c:	e025c593 	mla	r5, r3, r5, ip
    2230:	e595c034 	ldr	ip, [r5, #52]	; 0x34
    2234:	e28c7001 	add	r7, ip, #1
    2238:	e207700f 	and	r7, r7, #15
    223c:	e5954030 	ldr	r4, [r5, #48]	; 0x30
    2240:	e1570004 	cmp	r7, r4
    2244:	0a000017 	beq	22a8 <spin1_schedule_callback+0x98>
    2248:	e59f4084 	ldr	r4, [pc, #132]	; 22d4 <spin1_schedule_callback+0xc4>
    224c:	e08cc08c 	add	ip, ip, ip, lsl #1
    2250:	e3a050c8 	mov	r5, #200	; 0xc8
    2254:	e0030395 	mul	r3, r5, r3
    2258:	e083c10c 	add	ip, r3, ip, lsl #2
    225c:	e084c00c 	add	ip, r4, ip
    2260:	e58c0038 	str	r0, [ip, #56]	; 0x38
    2264:	e0840003 	add	r0, r4, r3
    2268:	e590c034 	ldr	ip, [r0, #52]	; 0x34
    226c:	e08cc08c 	add	ip, ip, ip, lsl #1
    2270:	e083c10c 	add	ip, r3, ip, lsl #2
    2274:	e084c00c 	add	ip, r4, ip
    2278:	e58c103c 	str	r1, [ip, #60]	; 0x3c
    227c:	e5901034 	ldr	r1, [r0, #52]	; 0x34
    2280:	e0811081 	add	r1, r1, r1, lsl #1
    2284:	e0833101 	add	r3, r3, r1, lsl #2
    2288:	e0844003 	add	r4, r4, r3
    228c:	e5842040 	str	r2, [r4, #64]	; 0x40
    2290:	e5903034 	ldr	r3, [r0, #52]	; 0x34
    2294:	e2833001 	add	r3, r3, #1
    2298:	e203300f 	and	r3, r3, #15
    229c:	e5803034 	str	r3, [r0, #52]	; 0x34
    22a0:	e3a00001 	mov	r0, #1
    22a4:	ea000007 	b	22c8 <spin1_schedule_callback+0xb8>
    22a8:	e59f3024 	ldr	r3, [pc, #36]	; 22d4 <spin1_schedule_callback+0xc4>
    22ac:	e5932018 	ldr	r2, [r3, #24]
    22b0:	e3822001 	orr	r2, r2, #1
    22b4:	e5832018 	str	r2, [r3, #24]
    22b8:	e593201c 	ldr	r2, [r3, #28]
    22bc:	e2822001 	add	r2, r2, #1
    22c0:	e583201c 	str	r2, [r3, #28]
    22c4:	e3a00000 	mov	r0, #0
    22c8:	e121f006 	msr	CPSR_c, r6
    22cc:	e8bd00f0 	pop	{r4, r5, r6, r7}
    22d0:	e12fff1e 	bx	lr
    22d4:	00402f7c 	.word	0x00402f7c

000022d8 <spin1_trigger_user_event>:
    22d8:	e59f303c 	ldr	r3, [pc, #60]	; 231c <spin1_trigger_user_event+0x44>
    22dc:	e5d33358 	ldrb	r3, [r3, #856]	; 0x358
    22e0:	e3530000 	cmp	r3, #0
    22e4:	1a00000a 	bne	2314 <spin1_trigger_user_event+0x3c>
    22e8:	e59f3030 	ldr	r3, [pc, #48]	; 2320 <spin1_trigger_user_event+0x48>
    22ec:	e5830000 	str	r0, [r3]
    22f0:	e59f302c 	ldr	r3, [pc, #44]	; 2324 <spin1_trigger_user_event+0x4c>
    22f4:	e5831000 	str	r1, [r3]
    22f8:	e3a00001 	mov	r0, #1
    22fc:	e59f3018 	ldr	r3, [pc, #24]	; 231c <spin1_trigger_user_event+0x44>
    2300:	e5c30358 	strb	r0, [r3, #856]	; 0x358
    2304:	e3a02002 	mov	r2, #2
    2308:	e3a0341f 	mov	r3, #520093696	; 0x1f000000
    230c:	e5832018 	str	r2, [r3, #24]
    2310:	e12fff1e 	bx	lr
    2314:	e3a00000 	mov	r0, #0
    2318:	e12fff1e 	bx	lr
    231c:	00402f7c 	.word	0x00402f7c
    2320:	004001a8 	.word	0x004001a8
    2324:	00400054 	.word	0x00400054

00002328 <rts_init>:
    2328:	e52de004 	push	{lr}		; (str lr, [sp, #-4]!)
    232c:	e24dd00c 	sub	sp, sp, #12
    2330:	e3a034f2 	mov	r3, #-234881024	; 0xf2000000
    2334:	e5933110 	ldr	r3, [r3, #272]	; 0x110
    2338:	e1e03003 	mvn	r3, r3
    233c:	e1a03fa3 	lsr	r3, r3, #31
    2340:	e59f21e8 	ldr	r2, [pc, #488]	; 2530 <rts_init+0x208>
    2344:	e5c23008 	strb	r3, [r2, #8]
    2348:	e3530000 	cmp	r3, #0
    234c:	0a000042 	beq	245c <rts_init+0x134>
    2350:	e3a00000 	mov	r0, #0
    2354:	e59f11d8 	ldr	r1, [pc, #472]	; 2534 <rts_init+0x20c>
    2358:	e59f31d8 	ldr	r3, [pc, #472]	; 2538 <rts_init+0x210>
    235c:	e5932000 	ldr	r2, [r3]
    2360:	e59f31d4 	ldr	r3, [pc, #468]	; 253c <rts_init+0x214>
    2364:	e5533057 	ldrb	r3, [r3, #-87]	; 0xffffffa9
    2368:	eb0001ee 	bl	2b28 <io_printf>
    236c:	e59f31cc 	ldr	r3, [pc, #460]	; 2540 <rts_init+0x218>
    2370:	e3e0c000 	mvn	ip, #0
    2374:	e3a00000 	mov	r0, #0
    2378:	e59f11c4 	ldr	r1, [pc, #452]	; 2544 <rts_init+0x21c>
    237c:	e583c000 	str	ip, [r3]
    2380:	e2832901 	add	r2, r3, #16384	; 0x4000
    2384:	e5820000 	str	r0, [r2]
    2388:	e2833004 	add	r3, r3, #4
    238c:	e1530001 	cmp	r3, r1
    2390:	1afffff9 	bne	237c <rts_init+0x54>
    2394:	e59f21ac 	ldr	r2, [pc, #428]	; 2548 <rts_init+0x220>
    2398:	e59f31a0 	ldr	r3, [pc, #416]	; 2540 <rts_init+0x218>
    239c:	e5832008 	str	r2, [r3, #8]
    23a0:	e3e03000 	mvn	r3, #0
    23a4:	e59f11a0 	ldr	r1, [pc, #416]	; 254c <rts_init+0x224>
    23a8:	e5813008 	str	r3, [r1, #8]
    23ac:	e59f1184 	ldr	r1, [pc, #388]	; 2538 <rts_init+0x210>
    23b0:	e5910000 	ldr	r0, [r1]
    23b4:	e2800006 	add	r0, r0, #6
    23b8:	e3a01001 	mov	r1, #1
    23bc:	e1a00011 	lsl	r0, r1, r0
    23c0:	e59fc188 	ldr	ip, [pc, #392]	; 2550 <rts_init+0x228>
    23c4:	e58c0008 	str	r0, [ip, #8]
    23c8:	e3e0e052 	mvn	lr, #82	; 0x52
    23cc:	e59fc168 	ldr	ip, [pc, #360]	; 253c <rts_init+0x214>
    23d0:	e54ce043 	strb	lr, [ip, #-67]	; 0xffffffbd
    23d4:	e59fc178 	ldr	ip, [pc, #376]	; 2554 <rts_init+0x22c>
    23d8:	e58c1000 	str	r1, [ip]
    23dc:	e59fc174 	ldr	ip, [pc, #372]	; 2558 <rts_init+0x230>
    23e0:	e58c1000 	str	r1, [ip]
    23e4:	e58d0000 	str	r0, [sp]
    23e8:	e3a00000 	mov	r0, #0
    23ec:	e59f1168 	ldr	r1, [pc, #360]	; 255c <rts_init+0x234>
    23f0:	eb0001cc 	bl	2b28 <io_printf>
    23f4:	e3a034f1 	mov	r3, #-251658240	; 0xf1000000
    23f8:	e3a02000 	mov	r2, #0
    23fc:	e583202c 	str	r2, [r3, #44]	; 0x2c
    2400:	e5832300 	str	r2, [r3, #768]	; 0x300
    2404:	e59f1154 	ldr	r1, [pc, #340]	; 2560 <rts_init+0x238>
    2408:	e5831200 	str	r1, [r3, #512]	; 0x200
    240c:	e5832304 	str	r2, [r3, #772]	; 0x304
    2410:	e241100e 	sub	r1, r1, #14
    2414:	e5831204 	str	r1, [r3, #516]	; 0x204
    2418:	e5832308 	str	r2, [r3, #776]	; 0x308
    241c:	e2811001 	add	r1, r1, #1
    2420:	e5831208 	str	r1, [r3, #520]	; 0x208
    2424:	e583230c 	str	r2, [r3, #780]	; 0x30c
    2428:	e2811002 	add	r1, r1, #2
    242c:	e583120c 	str	r1, [r3, #524]	; 0x20c
    2430:	e5832310 	str	r2, [r3, #784]	; 0x310
    2434:	e59f1128 	ldr	r1, [pc, #296]	; 2564 <rts_init+0x23c>
    2438:	e5831210 	str	r1, [r3, #528]	; 0x210
    243c:	e5832314 	str	r2, [r3, #788]	; 0x314
    2440:	e241100e 	sub	r1, r1, #14
    2444:	e5831214 	str	r1, [r3, #532]	; 0x214
    2448:	e3a0103f 	mov	r1, #63	; 0x3f
    244c:	e583102c 	str	r1, [r3, #44]	; 0x2c
    2450:	e59f3110 	ldr	r3, [pc, #272]	; 2568 <rts_init+0x240>
    2454:	e5832000 	str	r2, [r3]
    2458:	ea000017 	b	24bc <rts_init+0x194>
    245c:	e59f3108 	ldr	r3, [pc, #264]	; 256c <rts_init+0x244>
    2460:	e5930000 	ldr	r0, [r3]
    2464:	e59f1104 	ldr	r1, [pc, #260]	; 2570 <rts_init+0x248>
    2468:	e59fc0cc 	ldr	ip, [pc, #204]	; 253c <rts_init+0x214>
    246c:	e5932000 	ldr	r2, [r3]
    2470:	e0602002 	rsb	r2, r0, r2
    2474:	e1520001 	cmp	r2, r1
    2478:	8a000003 	bhi	248c <rts_init+0x164>
    247c:	e55c2043 	ldrb	r2, [ip, #-67]	; 0xffffffbd
    2480:	e20220ff 	and	r2, r2, #255	; 0xff
    2484:	e35200ac 	cmp	r2, #172	; 0xac
    2488:	9afffff7 	bls	246c <rts_init+0x144>
    248c:	e59f30a8 	ldr	r3, [pc, #168]	; 253c <rts_init+0x214>
    2490:	e5533043 	ldrb	r3, [r3, #-67]	; 0xffffffbd
    2494:	e20330ff 	and	r3, r3, #255	; 0xff
    2498:	e35300ac 	cmp	r3, #172	; 0xac
    249c:	8a000006 	bhi	24bc <rts_init+0x194>
    24a0:	e59f3088 	ldr	r3, [pc, #136]	; 2530 <rts_init+0x208>
    24a4:	e5932018 	ldr	r2, [r3, #24]
    24a8:	e3822010 	orr	r2, r2, #16
    24ac:	e5832018 	str	r2, [r3, #24]
    24b0:	e3a00000 	mov	r0, #0
    24b4:	e59f10b8 	ldr	r1, [pc, #184]	; 2574 <rts_init+0x24c>
    24b8:	eb00019a 	bl	2b28 <io_printf>
    24bc:	e59f20b4 	ldr	r2, [pc, #180]	; 2578 <rts_init+0x250>
    24c0:	e3a03000 	mov	r3, #0
    24c4:	e5823000 	str	r3, [r2]
    24c8:	e5823004 	str	r3, [r2, #4]
    24cc:	e5823008 	str	r3, [r2, #8]
    24d0:	e582300c 	str	r3, [r2, #12]
    24d4:	e5823010 	str	r3, [r2, #16]
    24d8:	e5823014 	str	r3, [r2, #20]
    24dc:	e5823018 	str	r3, [r2, #24]
    24e0:	e582301c 	str	r3, [r2, #28]
    24e4:	e5823020 	str	r3, [r2, #32]
    24e8:	e5823024 	str	r3, [r2, #36]	; 0x24
    24ec:	e5823028 	str	r3, [r2, #40]	; 0x28
    24f0:	e3a0241f 	mov	r2, #520093696	; 0x1f000000
    24f4:	e3a01040 	mov	r1, #64	; 0x40
    24f8:	e5821014 	str	r1, [r2, #20]
    24fc:	e59f0078 	ldr	r0, [pc, #120]	; 257c <rts_init+0x254>
    2500:	e582010c 	str	r0, [r2, #268]	; 0x10c
    2504:	e3a00026 	mov	r0, #38	; 0x26
    2508:	e582020c 	str	r0, [r2, #524]	; 0x20c
    250c:	e592000c 	ldr	r0, [r2, #12]
    2510:	e3c00040 	bic	r0, r0, #64	; 0x40
    2514:	e582000c 	str	r0, [r2, #12]
    2518:	e5821010 	str	r1, [r2, #16]
    251c:	e593203c 	ldr	r2, [r3, #60]	; 0x3c
    2520:	e59f3058 	ldr	r3, [pc, #88]	; 2580 <rts_init+0x258>
    2524:	e5832000 	str	r2, [r3]
    2528:	e28dd00c 	add	sp, sp, #12
    252c:	e49df004 	pop	{pc}		; (ldr pc, [sp], #4)
    2530:	00402f7c 	.word	0x00402f7c
    2534:	00003158 	.word	0x00003158
    2538:	00400050 	.word	0x00400050
    253c:	f5007fff 	.word	0xf5007fff
    2540:	f1008000 	.word	0xf1008000
    2544:	f1009000 	.word	0xf1009000
    2548:	0ffff802 	.word	0x0ffff802
    254c:	f100c000 	.word	0xf100c000
    2550:	f1004000 	.word	0xf1004000
    2554:	00400018 	.word	0x00400018
    2558:	0040001c 	.word	0x0040001c
    255c:	0000317c 	.word	0x0000317c
    2560:	01fffcff 	.word	0x01fffcff
    2564:	0001fcff 	.word	0x0001fcff
    2568:	0040005c 	.word	0x0040005c
    256c:	f5007f10 	.word	0xf5007f10
    2570:	00001387 	.word	0x00001387
    2574:	000031ac 	.word	0x000031ac
    2578:	00400024 	.word	0x00400024
    257c:	00000a78 	.word	0x00000a78
    2580:	00400020 	.word	0x00400020

00002584 <rts_cleanup>:
    2584:	e3a02000 	mov	r2, #0
    2588:	e59f3050 	ldr	r3, [pc, #80]	; 25e0 <rts_cleanup+0x5c>
    258c:	e5432043 	strb	r2, [r3, #-67]	; 0xffffffbd
    2590:	e59f304c 	ldr	r3, [pc, #76]	; 25e4 <rts_cleanup+0x60>
    2594:	e5d33008 	ldrb	r3, [r3, #8]
    2598:	e1530002 	cmp	r3, r2
    259c:	0a00000b 	beq	25d0 <rts_cleanup+0x4c>
    25a0:	e59f3040 	ldr	r3, [pc, #64]	; 25e8 <rts_cleanup+0x64>
    25a4:	e3e0c000 	mvn	ip, #0
    25a8:	e1a00002 	mov	r0, r2
    25ac:	e59f1038 	ldr	r1, [pc, #56]	; 25ec <rts_cleanup+0x68>
    25b0:	e583c000 	str	ip, [r3]
    25b4:	e2832901 	add	r2, r3, #16384	; 0x4000
    25b8:	e5820000 	str	r0, [r2]
    25bc:	e2833004 	add	r3, r3, #4
    25c0:	e1530001 	cmp	r3, r1
    25c4:	1afffff9 	bne	25b0 <rts_cleanup+0x2c>
    25c8:	e3a034f2 	mov	r3, #-234881024	; 0xf2000000
    25cc:	e5933190 	ldr	r3, [r3, #400]	; 0x190
    25d0:	e3a02040 	mov	r2, #64	; 0x40
    25d4:	e3a0341f 	mov	r3, #520093696	; 0x1f000000
    25d8:	e5832010 	str	r2, [r3, #16]
    25dc:	e12fff1e 	bx	lr
    25e0:	f5007fff 	.word	0xf5007fff
    25e4:	00402f7c 	.word	0x00402f7c
    25e8:	f1008000 	.word	0xf1008000
    25ec:	f1009000 	.word	0xf1009000

000025f0 <io_put_char>:
    25f0:	e92d4008 	push	{r3, lr}
    25f4:	e1a03000 	mov	r3, r0
    25f8:	e3500002 	cmp	r0, #2
    25fc:	8a000003 	bhi	2610 <io_put_char+0x20>
    2600:	e1a00001 	mov	r0, r1
    2604:	e1a01003 	mov	r1, r3
    2608:	ebfff6ff 	bl	20c <svc_put_char>
    260c:	e8bd8008 	pop	{r3, pc}
    2610:	e3500003 	cmp	r0, #3
    2614:	98bd8008 	popls	{r3, pc}
    2618:	e59f0018 	ldr	r0, [pc, #24]	; 2638 <io_put_char+0x48>
    261c:	e5902000 	ldr	r2, [r0]
    2620:	e7c31002 	strb	r1, [r3, r2]
    2624:	e2822001 	add	r2, r2, #1
    2628:	e5802000 	str	r2, [r0]
    262c:	e3a01000 	mov	r1, #0
    2630:	e7c31002 	strb	r1, [r3, r2]
    2634:	e8bd8008 	pop	{r3, pc}
    2638:	004032d8 	.word	0x004032d8

0000263c <io_put_str>:
    263c:	e92d41f0 	push	{r4, r5, r6, r7, r8, lr}
    2640:	e1a05000 	mov	r5, r0
    2644:	e1a06001 	mov	r6, r1
    2648:	e5d13000 	ldrb	r3, [r1]
    264c:	e3530000 	cmp	r3, #0
    2650:	03a07000 	moveq	r7, #0
    2654:	0a000004 	beq	266c <io_put_str+0x30>
    2658:	e3a07000 	mov	r7, #0
    265c:	e2877001 	add	r7, r7, #1
    2660:	e7d63007 	ldrb	r3, [r6, r7]
    2664:	e3530000 	cmp	r3, #0
    2668:	1afffffb 	bne	265c <io_put_str+0x20>
    266c:	e1520007 	cmp	r2, r7
    2670:	da000007 	ble	2694 <io_put_str+0x58>
    2674:	e1a04002 	mov	r4, r2
    2678:	e3a08020 	mov	r8, #32
    267c:	e1a00005 	mov	r0, r5
    2680:	e1a01008 	mov	r1, r8
    2684:	ebffffd9 	bl	25f0 <io_put_char>
    2688:	e2444001 	sub	r4, r4, #1
    268c:	e1540007 	cmp	r4, r7
    2690:	1afffff9 	bne	267c <io_put_str+0x40>
    2694:	e5d61000 	ldrb	r1, [r6]
    2698:	e3510000 	cmp	r1, #0
    269c:	08bd81f0 	popeq	{r4, r5, r6, r7, r8, pc}
    26a0:	e1a00005 	mov	r0, r5
    26a4:	ebffffd1 	bl	25f0 <io_put_char>
    26a8:	e5f61001 	ldrb	r1, [r6, #1]!
    26ac:	e3510000 	cmp	r1, #0
    26b0:	1afffffa 	bne	26a0 <io_put_str+0x64>
    26b4:	e8bd81f0 	pop	{r4, r5, r6, r7, r8, pc}

000026b8 <io_put_int>:
    26b8:	e92d41f0 	push	{r4, r5, r6, r7, r8, lr}
    26bc:	e24dd018 	sub	sp, sp, #24
    26c0:	e1a06000 	mov	r6, r0
    26c4:	e1a05002 	mov	r5, r2
    26c8:	e3510000 	cmp	r1, #0
    26cc:	b2611000 	rsblt	r1, r1, #0
    26d0:	b3a0702d 	movlt	r7, #45	; 0x2d
    26d4:	a3a07000 	movge	r7, #0
    26d8:	e3a04000 	mov	r4, #0
    26dc:	ea000000 	b	26e4 <io_put_int+0x2c>
    26e0:	e1a04000 	mov	r4, r0
    26e4:	e28d0004 	add	r0, sp, #4
    26e8:	ebfff6bb 	bl	1dc <div10>
    26ec:	e59d3004 	ldr	r3, [sp, #4]
    26f0:	e59d2008 	ldr	r2, [sp, #8]
    26f4:	e2822030 	add	r2, r2, #48	; 0x30
    26f8:	e20220ff 	and	r2, r2, #255	; 0xff
    26fc:	e28d100c 	add	r1, sp, #12
    2700:	e7c12004 	strb	r2, [r1, r4]
    2704:	e2840001 	add	r0, r4, #1
    2708:	e1a01003 	mov	r1, r3
    270c:	e3530000 	cmp	r3, #0
    2710:	1afffff2 	bne	26e0 <io_put_int+0x28>
    2714:	e3500000 	cmp	r0, #0
    2718:	d1a04000 	movle	r4, r0
    271c:	da000009 	ble	2748 <io_put_int+0x90>
    2720:	e3520030 	cmp	r2, #48	; 0x30
    2724:	1a000007 	bne	2748 <io_put_int+0x90>
    2728:	ea000004 	b	2740 <io_put_int+0x88>
    272c:	e2444001 	sub	r4, r4, #1
    2730:	e28d300c 	add	r3, sp, #12
    2734:	e7d33004 	ldrb	r3, [r3, r4]
    2738:	e3530030 	cmp	r3, #48	; 0x30
    273c:	1a000001 	bne	2748 <io_put_int+0x90>
    2740:	e3540000 	cmp	r4, #0
    2744:	cafffff8 	bgt	272c <io_put_int+0x74>
    2748:	e3570000 	cmp	r7, #0
    274c:	12844001 	addne	r4, r4, #1
    2750:	128d2018 	addne	r2, sp, #24
    2754:	10823004 	addne	r3, r2, r4
    2758:	1543700c 	strbne	r7, [r3, #-12]
    275c:	e2843001 	add	r3, r4, #1
    2760:	e1550003 	cmp	r5, r3
    2764:	9a000008 	bls	278c <io_put_int+0xd4>
    2768:	e2455001 	sub	r5, r5, #1
    276c:	e1a07004 	mov	r7, r4
    2770:	e3a08020 	mov	r8, #32
    2774:	e1a00006 	mov	r0, r6
    2778:	e1a01008 	mov	r1, r8
    277c:	ebffff9b 	bl	25f0 <io_put_char>
    2780:	e2455001 	sub	r5, r5, #1
    2784:	e1550007 	cmp	r5, r7
    2788:	1afffff9 	bne	2774 <io_put_int+0xbc>
    278c:	e3540000 	cmp	r4, #0
    2790:	ba000007 	blt	27b4 <io_put_int+0xfc>
    2794:	e28d500c 	add	r5, sp, #12
    2798:	e2844001 	add	r4, r4, #1
    279c:	e0854004 	add	r4, r5, r4
    27a0:	e1a00006 	mov	r0, r6
    27a4:	e5741001 	ldrb	r1, [r4, #-1]!
    27a8:	ebffff90 	bl	25f0 <io_put_char>
    27ac:	e1540005 	cmp	r4, r5
    27b0:	1afffffa 	bne	27a0 <io_put_int+0xe8>
    27b4:	e28dd018 	add	sp, sp, #24
    27b8:	e8bd81f0 	pop	{r4, r5, r6, r7, r8, pc}

000027bc <io_put_uint>:
    27bc:	e92d41f0 	push	{r4, r5, r6, r7, r8, lr}
    27c0:	e24dd018 	sub	sp, sp, #24
    27c4:	e1a06000 	mov	r6, r0
    27c8:	e1a05002 	mov	r5, r2
    27cc:	e1a07003 	mov	r7, r3
    27d0:	e3a04000 	mov	r4, #0
    27d4:	ea000000 	b	27dc <io_put_uint+0x20>
    27d8:	e1a04002 	mov	r4, r2
    27dc:	e28d0004 	add	r0, sp, #4
    27e0:	ebfff67d 	bl	1dc <div10>
    27e4:	e99d000a 	ldmib	sp, {r1, r3}
    27e8:	e2833030 	add	r3, r3, #48	; 0x30
    27ec:	e20330ff 	and	r3, r3, #255	; 0xff
    27f0:	e28d200c 	add	r2, sp, #12
    27f4:	e7c23004 	strb	r3, [r2, r4]
    27f8:	e2842001 	add	r2, r4, #1
    27fc:	e3510000 	cmp	r1, #0
    2800:	1afffff4 	bne	27d8 <io_put_uint+0x1c>
    2804:	e3520000 	cmp	r2, #0
    2808:	d1a04002 	movle	r4, r2
    280c:	da000009 	ble	2838 <io_put_uint+0x7c>
    2810:	e3530030 	cmp	r3, #48	; 0x30
    2814:	1a000007 	bne	2838 <io_put_uint+0x7c>
    2818:	ea000004 	b	2830 <io_put_uint+0x74>
    281c:	e2444001 	sub	r4, r4, #1
    2820:	e28d300c 	add	r3, sp, #12
    2824:	e7d33004 	ldrb	r3, [r3, r4]
    2828:	e3530030 	cmp	r3, #48	; 0x30
    282c:	1a000001 	bne	2838 <io_put_uint+0x7c>
    2830:	e3540000 	cmp	r4, #0
    2834:	cafffff8 	bgt	281c <io_put_uint+0x60>
    2838:	e2843001 	add	r3, r4, #1
    283c:	e1550003 	cmp	r5, r3
    2840:	9a000007 	bls	2864 <io_put_uint+0xa8>
    2844:	e2455001 	sub	r5, r5, #1
    2848:	e1a08004 	mov	r8, r4
    284c:	e1a00006 	mov	r0, r6
    2850:	e1a01007 	mov	r1, r7
    2854:	ebffff65 	bl	25f0 <io_put_char>
    2858:	e2455001 	sub	r5, r5, #1
    285c:	e1550008 	cmp	r5, r8
    2860:	1afffff9 	bne	284c <io_put_uint+0x90>
    2864:	e3540000 	cmp	r4, #0
    2868:	ba000007 	blt	288c <io_put_uint+0xd0>
    286c:	e28d500c 	add	r5, sp, #12
    2870:	e2844001 	add	r4, r4, #1
    2874:	e0854004 	add	r4, r5, r4
    2878:	e1a00006 	mov	r0, r6
    287c:	e5741001 	ldrb	r1, [r4, #-1]!
    2880:	ebffff5a 	bl	25f0 <io_put_char>
    2884:	e1540005 	cmp	r4, r5
    2888:	1afffffa 	bne	2878 <io_put_uint+0xbc>
    288c:	e28dd018 	add	sp, sp, #24
    2890:	e8bd81f0 	pop	{r4, r5, r6, r7, r8, pc}

00002894 <io_put_zhex>:
    2894:	e92d41f0 	push	{r4, r5, r6, r7, r8, lr}
    2898:	e1a07000 	mov	r7, r0
    289c:	e1a06001 	mov	r6, r1
    28a0:	e2524001 	subs	r4, r2, #1
    28a4:	48bd81f0 	popmi	{r4, r5, r6, r7, r8, pc}
    28a8:	e2425107 	sub	r5, r2, #-1073741823	; 0xc0000001
    28ac:	e1a05105 	lsl	r5, r5, #2
    28b0:	e59f8020 	ldr	r8, [pc, #32]	; 28d8 <io_put_zhex+0x44>
    28b4:	e1a03536 	lsr	r3, r6, r5
    28b8:	e203300f 	and	r3, r3, #15
    28bc:	e1a00007 	mov	r0, r7
    28c0:	e7d81003 	ldrb	r1, [r8, r3]
    28c4:	ebffff49 	bl	25f0 <io_put_char>
    28c8:	e2455004 	sub	r5, r5, #4
    28cc:	e2544001 	subs	r4, r4, #1
    28d0:	5afffff7 	bpl	28b4 <io_put_zhex+0x20>
    28d4:	e8bd81f0 	pop	{r4, r5, r6, r7, r8, pc}
    28d8:	000031e4 	.word	0x000031e4

000028dc <io_put_hex>:
    28dc:	e92d41f0 	push	{r4, r5, r6, r7, r8, lr}
    28e0:	e24dd008 	sub	sp, sp, #8
    28e4:	e1a06000 	mov	r6, r0
    28e8:	e1a07003 	mov	r7, r3
    28ec:	e3a05000 	mov	r5, #0
    28f0:	e59fc0a8 	ldr	ip, [pc, #168]	; 29a0 <io_put_hex+0xc4>
    28f4:	ea000000 	b	28fc <io_put_hex+0x20>
    28f8:	e1a05000 	mov	r5, r0
    28fc:	e201300f 	and	r3, r1, #15
    2900:	e7dc3003 	ldrb	r3, [ip, r3]
    2904:	e7cd3005 	strb	r3, [sp, r5]
    2908:	e2850001 	add	r0, r5, #1
    290c:	e1b01221 	lsrs	r1, r1, #4
    2910:	1afffff8 	bne	28f8 <io_put_hex+0x1c>
    2914:	e3500000 	cmp	r0, #0
    2918:	d1a05000 	movle	r5, r0
    291c:	da000008 	ble	2944 <io_put_hex+0x68>
    2920:	e3530030 	cmp	r3, #48	; 0x30
    2924:	1a000006 	bne	2944 <io_put_hex+0x68>
    2928:	ea000003 	b	293c <io_put_hex+0x60>
    292c:	e2455001 	sub	r5, r5, #1
    2930:	e7dd3005 	ldrb	r3, [sp, r5]
    2934:	e3530030 	cmp	r3, #48	; 0x30
    2938:	1a000001 	bne	2944 <io_put_hex+0x68>
    293c:	e3550000 	cmp	r5, #0
    2940:	cafffff9 	bgt	292c <io_put_hex+0x50>
    2944:	e2853001 	add	r3, r5, #1
    2948:	e1520003 	cmp	r2, r3
    294c:	9a000007 	bls	2970 <io_put_hex+0x94>
    2950:	e2424001 	sub	r4, r2, #1
    2954:	e1a08005 	mov	r8, r5
    2958:	e1a00006 	mov	r0, r6
    295c:	e1a01007 	mov	r1, r7
    2960:	ebffff22 	bl	25f0 <io_put_char>
    2964:	e2444001 	sub	r4, r4, #1
    2968:	e1540008 	cmp	r4, r8
    296c:	1afffff9 	bne	2958 <io_put_hex+0x7c>
    2970:	e3550000 	cmp	r5, #0
    2974:	ba000007 	blt	2998 <io_put_hex+0xbc>
    2978:	e1a0400d 	mov	r4, sp
    297c:	e2855001 	add	r5, r5, #1
    2980:	e08d5005 	add	r5, sp, r5
    2984:	e1a00006 	mov	r0, r6
    2988:	e5751001 	ldrb	r1, [r5, #-1]!
    298c:	ebffff17 	bl	25f0 <io_put_char>
    2990:	e1550004 	cmp	r5, r4
    2994:	1afffffa 	bne	2984 <io_put_hex+0xa8>
    2998:	e28dd008 	add	sp, sp, #8
    299c:	e8bd81f0 	pop	{r4, r5, r6, r7, r8, pc}
    29a0:	000031e4 	.word	0x000031e4

000029a4 <io_put_fixed>:
    29a4:	e92d47f0 	push	{r4, r5, r6, r7, r8, r9, sl, lr}
    29a8:	e24dd028 	sub	sp, sp, #40	; 0x28
    29ac:	e1a06000 	mov	r6, r0
    29b0:	e1a05002 	mov	r5, r2
    29b4:	e59d7048 	ldr	r7, [sp, #72]	; 0x48
    29b8:	e3510000 	cmp	r1, #0
    29bc:	b2611000 	rsblt	r1, r1, #0
    29c0:	b3a0802d 	movlt	r8, #45	; 0x2d
    29c4:	a3a08000 	movge	r8, #0
    29c8:	e1a0c001 	mov	ip, r1
    29cc:	e353000c 	cmp	r3, #12
    29d0:	23a0300c 	movcs	r3, #12
    29d4:	e3530000 	cmp	r3, #0
    29d8:	03a04000 	moveq	r4, #0
    29dc:	0a00000c 	beq	2a14 <io_put_fixed+0x70>
    29e0:	e28de00c 	add	lr, sp, #12
    29e4:	e08e2003 	add	r2, lr, r3
    29e8:	e1a0080c 	lsl	r0, ip, #16
    29ec:	e1a00820 	lsr	r0, r0, #16
    29f0:	e0800100 	add	r0, r0, r0, lsl #2
    29f4:	e1a00080 	lsl	r0, r0, #1
    29f8:	e1a0c000 	mov	ip, r0
    29fc:	e1a00820 	lsr	r0, r0, #16
    2a00:	e2800030 	add	r0, r0, #48	; 0x30
    2a04:	e5620001 	strb	r0, [r2, #-1]!
    2a08:	e152000e 	cmp	r2, lr
    2a0c:	1afffff5 	bne	29e8 <io_put_fixed+0x44>
    2a10:	e1a04003 	mov	r4, r3
    2a14:	e1a0c80c 	lsl	ip, ip, #16
    2a18:	e1a0c82c 	lsr	ip, ip, #16
    2a1c:	e08cc10c 	add	ip, ip, ip, lsl #2
    2a20:	e1a0e08c 	lsl	lr, ip, #1
    2a24:	e1a0e82e 	lsr	lr, lr, #16
    2a28:	e35e0004 	cmp	lr, #4
    2a2c:	93a0e000 	movls	lr, #0
    2a30:	83a0e001 	movhi	lr, #1
    2a34:	e28d000c 	add	r0, sp, #12
    2a38:	e3a02000 	mov	r2, #0
    2a3c:	e1a09002 	mov	r9, r2
    2a40:	e3a0a030 	mov	sl, #48	; 0x30
    2a44:	ea000006 	b	2a64 <io_put_fixed+0xc0>
    2a48:	e4d0c001 	ldrb	ip, [r0], #1
    2a4c:	e2822001 	add	r2, r2, #1
    2a50:	e35c0038 	cmp	ip, #56	; 0x38
    2a54:	8540a001 	strbhi	sl, [r0, #-1]
    2a58:	928cc001 	addls	ip, ip, #1
    2a5c:	9540c001 	strbls	ip, [r0, #-1]
    2a60:	91a0e009 	movls	lr, r9
    2a64:	e1520003 	cmp	r2, r3
    2a68:	23a0c000 	movcs	ip, #0
    2a6c:	320ec001 	andcc	ip, lr, #1
    2a70:	e35c0000 	cmp	ip, #0
    2a74:	1afffff3 	bne	2a48 <io_put_fixed+0xa4>
    2a78:	e3530000 	cmp	r3, #0
    2a7c:	128d2028 	addne	r2, sp, #40	; 0x28
    2a80:	10823004 	addne	r3, r2, r4
    2a84:	13a0202e 	movne	r2, #46	; 0x2e
    2a88:	1543201c 	strbne	r2, [r3, #-28]	; 0xffffffe4
    2a8c:	12844001 	addne	r4, r4, #1
    2a90:	e08e1841 	add	r1, lr, r1, asr #16
    2a94:	e28d0004 	add	r0, sp, #4
    2a98:	ebfff5cf 	bl	1dc <div10>
    2a9c:	e59d3004 	ldr	r3, [sp, #4]
    2aa0:	e59d1008 	ldr	r1, [sp, #8]
    2aa4:	e2811030 	add	r1, r1, #48	; 0x30
    2aa8:	e28d200c 	add	r2, sp, #12
    2aac:	e7c21004 	strb	r1, [r2, r4]
    2ab0:	e2844001 	add	r4, r4, #1
    2ab4:	e1a01003 	mov	r1, r3
    2ab8:	e3530000 	cmp	r3, #0
    2abc:	1afffff4 	bne	2a94 <io_put_fixed+0xf0>
    2ac0:	e3580000 	cmp	r8, #0
    2ac4:	128d2028 	addne	r2, sp, #40	; 0x28
    2ac8:	10823004 	addne	r3, r2, r4
    2acc:	1543801c 	strbne	r8, [r3, #-28]	; 0xffffffe4
    2ad0:	12844001 	addne	r4, r4, #1
    2ad4:	e2843001 	add	r3, r4, #1
    2ad8:	e1550003 	cmp	r5, r3
    2adc:	9a000006 	bls	2afc <io_put_fixed+0x158>
    2ae0:	e2455001 	sub	r5, r5, #1
    2ae4:	e1a00006 	mov	r0, r6
    2ae8:	e1a01007 	mov	r1, r7
    2aec:	ebfffebf 	bl	25f0 <io_put_char>
    2af0:	e2455001 	sub	r5, r5, #1
    2af4:	e1550004 	cmp	r5, r4
    2af8:	1afffff9 	bne	2ae4 <io_put_fixed+0x140>
    2afc:	e3540000 	cmp	r4, #0
    2b00:	0a000006 	beq	2b20 <io_put_fixed+0x17c>
    2b04:	e28d500c 	add	r5, sp, #12
    2b08:	e0854004 	add	r4, r5, r4
    2b0c:	e1a00006 	mov	r0, r6
    2b10:	e5741001 	ldrb	r1, [r4, #-1]!
    2b14:	ebfffeb5 	bl	25f0 <io_put_char>
    2b18:	e1540005 	cmp	r4, r5
    2b1c:	1afffffa 	bne	2b0c <io_put_fixed+0x168>
    2b20:	e28dd028 	add	sp, sp, #40	; 0x28
    2b24:	e8bd87f0 	pop	{r4, r5, r6, r7, r8, r9, sl, pc}

00002b28 <io_printf>:
    2b28:	e92d000e 	push	{r1, r2, r3}
    2b2c:	e92d41f0 	push	{r4, r5, r6, r7, r8, lr}
    2b30:	e24dd014 	sub	sp, sp, #20
    2b34:	e1a06000 	mov	r6, r0
    2b38:	e59d402c 	ldr	r4, [sp, #44]	; 0x2c
    2b3c:	e3500003 	cmp	r0, #3
    2b40:	0a000088 	beq	2d68 <io_printf+0x240>
    2b44:	83a03000 	movhi	r3, #0
    2b48:	859f2228 	ldrhi	r2, [pc, #552]	; 2d78 <io_printf+0x250>
    2b4c:	85823000 	strhi	r3, [r2]
    2b50:	85c03000 	strbhi	r3, [r0]
    2b54:	e28d3030 	add	r3, sp, #48	; 0x30
    2b58:	e58d300c 	str	r3, [sp, #12]
    2b5c:	e3a07000 	mov	r7, #0
    2b60:	e3a08006 	mov	r8, #6
    2b64:	e5d41000 	ldrb	r1, [r4]
    2b68:	e3510000 	cmp	r1, #0
    2b6c:	0a00007d 	beq	2d68 <io_printf+0x240>
    2b70:	e2845001 	add	r5, r4, #1
    2b74:	e3510025 	cmp	r1, #37	; 0x25
    2b78:	0a000003 	beq	2b8c <io_printf+0x64>
    2b7c:	e1a00006 	mov	r0, r6
    2b80:	ebfffe9a 	bl	25f0 <io_put_char>
    2b84:	e1a04005 	mov	r4, r5
    2b88:	eafffff5 	b	2b64 <io_printf+0x3c>
    2b8c:	e5d41001 	ldrb	r1, [r4, #1]
    2b90:	e3510000 	cmp	r1, #0
    2b94:	0a000073 	beq	2d68 <io_printf+0x240>
    2b98:	e3510030 	cmp	r1, #48	; 0x30
    2b9c:	03a03030 	moveq	r3, #48	; 0x30
    2ba0:	13a03020 	movne	r3, #32
    2ba4:	e2840002 	add	r0, r4, #2
    2ba8:	e1a02007 	mov	r2, r7
    2bac:	ea000006 	b	2bcc <io_printf+0xa4>
    2bb0:	e4d04001 	ldrb	r4, [r0], #1
    2bb4:	e3540000 	cmp	r4, #0
    2bb8:	0a00006a 	beq	2d68 <io_printf+0x240>
    2bbc:	e0822102 	add	r2, r2, r2, lsl #2
    2bc0:	e0812082 	add	r2, r1, r2, lsl #1
    2bc4:	e2422030 	sub	r2, r2, #48	; 0x30
    2bc8:	e1a01004 	mov	r1, r4
    2bcc:	e1a04000 	mov	r4, r0
    2bd0:	e241c030 	sub	ip, r1, #48	; 0x30
    2bd4:	e35c0009 	cmp	ip, #9
    2bd8:	9afffff4 	bls	2bb0 <io_printf+0x88>
    2bdc:	e351002e 	cmp	r1, #46	; 0x2e
    2be0:	11a0c008 	movne	ip, r8
    2be4:	1a00000d 	bne	2c20 <io_printf+0xf8>
    2be8:	e4d01001 	ldrb	r1, [r0], #1
    2bec:	e1a0c007 	mov	ip, r7
    2bf0:	ea000006 	b	2c10 <io_printf+0xe8>
    2bf4:	e4d04001 	ldrb	r4, [r0], #1
    2bf8:	e3540000 	cmp	r4, #0
    2bfc:	0a000059 	beq	2d68 <io_printf+0x240>
    2c00:	e08cc10c 	add	ip, ip, ip, lsl #2
    2c04:	e081c08c 	add	ip, r1, ip, lsl #1
    2c08:	e24cc030 	sub	ip, ip, #48	; 0x30
    2c0c:	e1a01004 	mov	r1, r4
    2c10:	e1a04000 	mov	r4, r0
    2c14:	e2415030 	sub	r5, r1, #48	; 0x30
    2c18:	e3550009 	cmp	r5, #9
    2c1c:	9afffff4 	bls	2bf4 <io_printf+0xcc>
    2c20:	e2410063 	sub	r0, r1, #99	; 0x63
    2c24:	e3500017 	cmp	r0, #23
    2c28:	979ff100 	ldrls	pc, [pc, r0, lsl #2]
    2c2c:	ea00004a 	b	2d5c <io_printf+0x234>
    2c30:	00002c90 	.word	0x00002c90
    2c34:	00002cc8 	.word	0x00002cc8
    2c38:	00002d5c 	.word	0x00002d5c
    2c3c:	00002d00 	.word	0x00002d00
    2c40:	00002d5c 	.word	0x00002d5c
    2c44:	00002d5c 	.word	0x00002d5c
    2c48:	00002d5c 	.word	0x00002d5c
    2c4c:	00002d5c 	.word	0x00002d5c
    2c50:	00002d5c 	.word	0x00002d5c
    2c54:	00002d5c 	.word	0x00002d5c
    2c58:	00002d5c 	.word	0x00002d5c
    2c5c:	00002d5c 	.word	0x00002d5c
    2c60:	00002d5c 	.word	0x00002d5c
    2c64:	00002d5c 	.word	0x00002d5c
    2c68:	00002d5c 	.word	0x00002d5c
    2c6c:	00002d5c 	.word	0x00002d5c
    2c70:	00002cac 	.word	0x00002cac
    2c74:	00002d5c 	.word	0x00002d5c
    2c78:	00002ce4 	.word	0x00002ce4
    2c7c:	00002d5c 	.word	0x00002d5c
    2c80:	00002d5c 	.word	0x00002d5c
    2c84:	00002d24 	.word	0x00002d24
    2c88:	00002d5c 	.word	0x00002d5c
    2c8c:	00002d40 	.word	0x00002d40
    2c90:	e59d300c 	ldr	r3, [sp, #12]
    2c94:	e2832004 	add	r2, r3, #4
    2c98:	e58d200c 	str	r2, [sp, #12]
    2c9c:	e1a00006 	mov	r0, r6
    2ca0:	e5931000 	ldr	r1, [r3]
    2ca4:	ebfffe51 	bl	25f0 <io_put_char>
    2ca8:	eaffffad 	b	2b64 <io_printf+0x3c>
    2cac:	e59d300c 	ldr	r3, [sp, #12]
    2cb0:	e2831004 	add	r1, r3, #4
    2cb4:	e58d100c 	str	r1, [sp, #12]
    2cb8:	e1a00006 	mov	r0, r6
    2cbc:	e5931000 	ldr	r1, [r3]
    2cc0:	ebfffe5d 	bl	263c <io_put_str>
    2cc4:	eaffffa6 	b	2b64 <io_printf+0x3c>
    2cc8:	e59d100c 	ldr	r1, [sp, #12]
    2ccc:	e2810004 	add	r0, r1, #4
    2cd0:	e58d000c 	str	r0, [sp, #12]
    2cd4:	e1a00006 	mov	r0, r6
    2cd8:	e5911000 	ldr	r1, [r1]
    2cdc:	ebfffe75 	bl	26b8 <io_put_int>
    2ce0:	eaffff9f 	b	2b64 <io_printf+0x3c>
    2ce4:	e59d100c 	ldr	r1, [sp, #12]
    2ce8:	e2810004 	add	r0, r1, #4
    2cec:	e58d000c 	str	r0, [sp, #12]
    2cf0:	e1a00006 	mov	r0, r6
    2cf4:	e5911000 	ldr	r1, [r1]
    2cf8:	ebfffeaf 	bl	27bc <io_put_uint>
    2cfc:	eaffff98 	b	2b64 <io_printf+0x3c>
    2d00:	e59d100c 	ldr	r1, [sp, #12]
    2d04:	e2810004 	add	r0, r1, #4
    2d08:	e58d000c 	str	r0, [sp, #12]
    2d0c:	e5911000 	ldr	r1, [r1]
    2d10:	e58d3000 	str	r3, [sp]
    2d14:	e1a00006 	mov	r0, r6
    2d18:	e1a0300c 	mov	r3, ip
    2d1c:	ebffff20 	bl	29a4 <io_put_fixed>
    2d20:	eaffff8f 	b	2b64 <io_printf+0x3c>
    2d24:	e59d100c 	ldr	r1, [sp, #12]
    2d28:	e2810004 	add	r0, r1, #4
    2d2c:	e58d000c 	str	r0, [sp, #12]
    2d30:	e1a00006 	mov	r0, r6
    2d34:	e5911000 	ldr	r1, [r1]
    2d38:	ebfffee7 	bl	28dc <io_put_hex>
    2d3c:	eaffff88 	b	2b64 <io_printf+0x3c>
    2d40:	e59d300c 	ldr	r3, [sp, #12]
    2d44:	e2831004 	add	r1, r3, #4
    2d48:	e58d100c 	str	r1, [sp, #12]
    2d4c:	e1a00006 	mov	r0, r6
    2d50:	e5931000 	ldr	r1, [r3]
    2d54:	ebfffece 	bl	2894 <io_put_zhex>
    2d58:	eaffff81 	b	2b64 <io_printf+0x3c>
    2d5c:	e1a00006 	mov	r0, r6
    2d60:	ebfffe22 	bl	25f0 <io_put_char>
    2d64:	eaffff7e 	b	2b64 <io_printf+0x3c>
    2d68:	e28dd014 	add	sp, sp, #20
    2d6c:	e8bd41f0 	pop	{r4, r5, r6, r7, r8, lr}
    2d70:	e28dd00c 	add	sp, sp, #12
    2d74:	e12fff1e 	bx	lr
    2d78:	004032d8 	.word	0x004032d8
    2d7c:	4b524153 	.word	0x4b524153
    2d80:	6970532f 	.word	0x6970532f
    2d84:	6b614e4e 	.word	0x6b614e4e
    2d88:	00007265 	.word	0x00007265

00002d8c <S2_LEDS>:
    2d8c:	00010003 00400002                       ......@.

00002d94 <S3_LEDS>:
    2d94:	00010002 00000020 615b0909 775f6970     .... .....[api_w
    2da4:	5d6e7261 72617720 676e696e 6f74203a     arn] warning: to
    2db4:	616d206f 4620796e 65205149 746e6576     o many FIQ event
    2dc4:	00000a73 615b0909 645f6970 67756265     s.....[api_debug
    2dd4:	754e205d 7265626d 20666f20 65726f63     ] Number of core
    2de4:	25203a73 00000a64 615b0909 645f6970     s: %d.....[api_d
    2df4:	67756265 7362205d 3a656469 2c642520     ebug] bside: %d,
    2e04:	69736220 203a657a 000a6425 615b0909      bsize: %d....[a
    2e14:	645f6970 67756265 6863205d 203a7069     pi_debug] chip: 
    2e24:	202c6425 65726f63 70616d20 7830203a     %d, core map: 0x
    2e34:	000a7825 615b0909 645f6970 67756265     %x....[api_debug
    2e44:	4452205d 3a4f4759 30206b20 7a382578     ] RDYGO: k 0x%8z
    2e54:	30206d20 7a382578 30207220 7a382578      m 0x%8z r 0x%8z
    2e64:	0000000a 615b0909 645f6970 67756265     ......[api_debug
    2e74:	4452205d 203a3259 7830206b 207a3825     ] RDY2: k 0x%8z 
    2e84:	7830206d 207a3825 78302072 0a7a3825     m 0x%8z r 0x%8z.
    2e94:	00000000 615b0909 645f6970 67756265     ......[api_debug
    2ea4:	4f47205d 206b203a 38257830 206d207a     ] GO: k 0x%8z m 
    2eb4:	38257830 2072207a 38257830 00000a7a     0x%8z r 0x%8z...
    2ec4:	615b0909 645f6970 67756265 5452205d     ..[api_debug] RT
    2ed4:	636d2052 20202020 63617020 7374656b     R mc     packets
    2ee4:	6425203a 0000000a 615b0909 645f6970     : %d......[api_d
    2ef4:	67756265 5452205d 70642052 636d2064     ebug] RTR dpd mc
    2f04:	63617020 7374656b 6425203a 0000000a      packets: %d....
    2f14:	615b0909 645f6970 67756265 5349205d     ..[api_debug] IS
    2f24:	68742052 6e776f72 63617020 7374656b     R thrown packets
    2f34:	6425203a 0000000a 615b0909 645f6970     : %d......[api_d
    2f44:	67756265 4d44205d 75622041 73747372     ebug] DMA bursts
    2f54:	2520203a 00000a64 615b0909 775f6970     :  %d.....[api_w
    2f64:	5d6e7261 72617720 676e696e 6174203a     arn] warning: ta
    2f74:	71206b73 65756575 6c756620 2528206c     sk queue full (%
    2f84:	000a2975 615b0909 775f6970 5d6e7261     u)....[api_warn]
    2f94:	72617720 676e696e 4d44203a 75712041      warning: DMA qu
    2fa4:	20657565 6c6c7566 75252820 00000a29     eue full (%u)...
    2fb4:	615b0909 775f6970 5d6e7261 72617720     ..[api_warn] war
    2fc4:	676e696e 6170203a 74656b63 65757120     ning: packet que
    2fd4:	66206575 206c6c75 29752528 0000000a     ue full (%u)....
    2fe4:	615b0909 775f6970 5d6e7261 72617720     ..[api_warn] war
    2ff4:	676e696e 6166203a 64656c69 206f7420     ning: failed to 
    3004:	636e7973 6e6f7268 20657369 2f642528     synchronise (%d/
    3014:	20296425 2f642528 2e296425 0000000a     %d) (%d/%d).....
    3024:	615b0909 775f6970 5d6e7261 72617720     ..[api_warn] war
    3034:	676e696e 6166203a 64656c69 206f7420     ning: failed to 
    3044:	636e7973 6e6f7268 20657369 2f642528     synchronise (%d/
    3054:	2e296425 0000000a 615b0909 775f6970     %d).......[api_w
    3064:	5d6e7261 72617720 676e696e 7973203a     arn] warning: sy
    3074:	7268636e 73696e6f 6f697461 6166206e     nchronisation fa
    3084:	64656c69 64722820 296f6779 00000a2e     iled (rdygo)....
    3094:	615b0909 645f6970 67756265 6553205d     ..[api_debug] Se
    30a4:	6e69646e 64722067 2e2e3279 00000a2e     nding rdy2......
    30b4:	615b0909 775f6970 5d6e7261 72617720     ..[api_warn] war
    30c4:	676e696e 7973203a 7268636e 73696e6f     ning: synchronis
    30d4:	6f697461 6166206e 64656c69 6f6c2820     ation failed (lo
    30e4:	2e296b63 0000000a 615b0909 775f6970     ck).......[api_w
    30f4:	5d6e7261 72617720 676e696e 7973203a     arn] warning: sy
    3104:	7268636e 73696e6f 6f697461 6974206e     nchronisation ti
    3114:	756f656d 67282074 0a2e296f 00000000     meout (go)......
    3124:	615b0909 645f6970 67756265 434d205d     ..[api_debug] MC
    3134:	746e6520 25207972 6b203a64 25783020      entry %d: k 0x%
    3144:	6d207a38 25783020 72207a38 25783020     8z m 0x%8z r 0x%
    3154:	000a7a38 615b0909 645f6970 67756265     8z....[api_debug
    3164:	6f72205d 7041746f 6425203a 6e6f6d20     ] rootAp: %d mon
    3174:	6425203a 0000000a 615b0909 645f6970     : %d......[api_d
    3184:	67756265 4452205d 203a3159 7830206b     ebug] RDY1: k 0x
    3194:	207a3825 7830206d 207a3825 78302072     %8z m 0x%8z r 0x
    31a4:	0a7a3825 00000000 615b0909 775f6970     %8z.......[api_w
    31b4:	5d6e7261 72617720 676e696e 6177203a     arn] warning: wa
    31c4:	6e697469 6f662067 6f722072 72657475     iting for router
    31d4:	696e6920 61662074 64656c69 00000a2e      init failed....

000031e4 <hex>:
    31e4:	33323130 37363534 62613938 66656463     0123456789abcdef
    31f4:	00000000 deaddead                       ........

000031fc <timer_callback>:
    31fc:	e92d4070 	push	{r4, r5, r6, lr}
    3200:	e1a05000 	mov	r5, r0
    3204:	ebfffb48 	bl	1f2c <spin1_int_disable>
    3208:	e1a06000 	mov	r6, r0
    320c:	e3a03d97 	mov	r3, #9664	; 0x25c0
    3210:	e59f2094 	ldr	r2, [pc, #148]	; 32ac <timer_callback+0xb0>
    3214:	e7924003 	ldr	r4, [r2, r3]
    3218:	e1d430b4 	ldrh	r3, [r4, #4]
    321c:	e3530000 	cmp	r3, #0
    3220:	0a000016 	beq	3280 <timer_callback+0x84>
    3224:	e5843018 	str	r3, [r4, #24]
    3228:	e2833006 	add	r3, r3, #6
    322c:	e1a03103 	lsl	r3, r3, #2
    3230:	e1c430b4 	strh	r3, [r4, #4]
    3234:	e5845014 	str	r5, [r4, #20]
    3238:	e1a00004 	mov	r0, r4
    323c:	e3a01001 	mov	r1, #1
    3240:	ebfff4a3 	bl	4d4 <spin1_send_sdp_msg>
    3244:	e3a03000 	mov	r3, #0
    3248:	e1c430b4 	strh	r3, [r4, #4]
    324c:	e59f305c 	ldr	r3, [pc, #92]	; 32b0 <timer_callback+0xb4>
    3250:	e593300c 	ldr	r3, [r3, #12]
    3254:	e59f2058 	ldr	r2, [pc, #88]	; 32b4 <timer_callback+0xb8>
    3258:	e2820f49 	add	r0, r2, #292	; 0x124
    325c:	e3530000 	cmp	r3, #0
    3260:	11a00002 	movne	r0, r2
    3264:	e2422d97 	sub	r2, r2, #9664	; 0x25c0
    3268:	e2422004 	sub	r2, r2, #4
    326c:	e3a01d97 	mov	r1, #9664	; 0x25c0
    3270:	e7820001 	str	r0, [r2, r1]
    3274:	e2233001 	eor	r3, r3, #1
    3278:	e2811f93 	add	r1, r1, #588	; 0x24c
    327c:	e7823001 	str	r3, [r2, r1]
    3280:	e1a00006 	mov	r0, r6
    3284:	ebfffb1c 	bl	1efc <spin1_mode_restore>
    3288:	e59f3028 	ldr	r3, [pc, #40]	; 32b8 <timer_callback+0xbc>
    328c:	e5933000 	ldr	r3, [r3]
    3290:	e1550003 	cmp	r5, r3
    3294:	38bd8070 	popcc	{r4, r5, r6, pc}
    3298:	e3a00000 	mov	r0, #0
    329c:	e59f1018 	ldr	r1, [pc, #24]	; 32bc <timer_callback+0xc0>
    32a0:	ebfffe20 	bl	2b28 <io_printf>
    32a4:	ebfff8ad 	bl	1560 <spin1_stop>
    32a8:	e8bd8070 	pop	{r4, r5, r6, pc}
    32ac:	004002bc 	.word	0x004002bc
    32b0:	00402abc 	.word	0x00402abc
    32b4:	00402880 	.word	0x00402880
    32b8:	0040029c 	.word	0x0040029c
    32bc:	000036a8 	.word	0x000036a8

000032c0 <mc_packet_callback>:
    32c0:	e92d40f8 	push	{r3, r4, r5, r6, r7, lr}
    32c4:	e1a04000 	mov	r4, r0
    32c8:	e1a06001 	mov	r6, r1
    32cc:	e2003b3e 	and	r3, r0, #63488	; 0xf800
    32d0:	e1a035a3 	lsr	r3, r3, #11
    32d4:	e3530010 	cmp	r3, #16
    32d8:	9a000029 	bls	3384 <ZI_LENGTH+0xc0>
    32dc:	e3a00000 	mov	r0, #0
    32e0:	e59f10e0 	ldr	r1, [pc, #224]	; 33c8 <ZI_LENGTH+0x104>
    32e4:	e1a02004 	mov	r2, r4
    32e8:	ebfffe0e 	bl	2b28 <io_printf>
    32ec:	e204700f 	and	r7, r4, #15
    32f0:	e59f10d4 	ldr	r1, [pc, #212]	; 33cc <ZI_LENGTH+0x108>
    32f4:	e3a02f97 	mov	r2, #604	; 0x25c
    32f8:	e0020297 	mul	r2, r7, r2
    32fc:	e0813002 	add	r3, r1, r2
    3300:	e7915002 	ldr	r5, [r1, r2]
    3304:	e2852020 	add	r2, r5, #32
    3308:	e1d510b4 	ldrh	r1, [r5, #4]
    330c:	e7824101 	str	r4, [r2, r1, lsl #2]
    3310:	e1d510b4 	ldrh	r1, [r5, #4]
    3314:	e7826101 	str	r6, [r2, r1, lsl #2]
    3318:	e1d520b4 	ldrh	r2, [r5, #4]
    331c:	e2822008 	add	r2, r2, #8
    3320:	e1c520b4 	strh	r2, [r5, #4]
    3324:	e5932250 	ldr	r2, [r3, #592]	; 0x250
    3328:	e2822001 	add	r2, r2, #1
    332c:	e5832250 	str	r2, [r3, #592]	; 0x250
    3330:	e1d530b4 	ldrh	r3, [r5, #4]
    3334:	e35300ff 	cmp	r3, #255	; 0xff
    3338:	98bd80f8 	popls	{r3, r4, r5, r6, r7, pc}
    333c:	e5853014 	str	r3, [r5, #20]
    3340:	ebfff721 	bl	fcc <spin1_get_simulation_time>
    3344:	e5850018 	str	r0, [r5, #24]
    3348:	e1d530b4 	ldrh	r3, [r5, #4]
    334c:	e2833018 	add	r3, r3, #24
    3350:	e1c530b4 	strh	r3, [r5, #4]
    3354:	e1a00005 	mov	r0, r5
    3358:	e3a01001 	mov	r1, #1
    335c:	ebfff45c 	bl	4d4 <spin1_send_sdp_msg>
    3360:	e3a03000 	mov	r3, #0
    3364:	e1c530b4 	strh	r3, [r5, #4]
    3368:	e3a02f97 	mov	r2, #604	; 0x25c
    336c:	e59f3058 	ldr	r3, [pc, #88]	; 33cc <ZI_LENGTH+0x108>
    3370:	e0273792 	mla	r7, r2, r7, r3
    3374:	e5973254 	ldr	r3, [r7, #596]	; 0x254
    3378:	e2833001 	add	r3, r3, #1
    337c:	e5873254 	str	r3, [r7, #596]	; 0x254
    3380:	e8bd80f8 	pop	{r3, r4, r5, r6, r7, pc}
    3384:	e3a03d97 	mov	r3, #9664	; 0x25c0
    3388:	e59f203c 	ldr	r2, [pc, #60]	; 33cc <ZI_LENGTH+0x108>
    338c:	e7923003 	ldr	r3, [r2, r3]
    3390:	e1d320b4 	ldrh	r2, [r3, #4]
    3394:	e352003f 	cmp	r2, #63	; 0x3f
    3398:	90831102 	addls	r1, r3, r2, lsl #2
    339c:	95810020 	strls	r0, [r1, #32]
    33a0:	92822001 	addls	r2, r2, #1
    33a4:	91c320b4 	strhls	r2, [r3, #4]
    33a8:	959f201c 	ldrls	r2, [pc, #28]	; 33cc <ZI_LENGTH+0x108>
    33ac:	959f301c 	ldrls	r3, [pc, #28]	; 33d0 <ZI_LENGTH+0x10c>
    33b0:	859f2014 	ldrhi	r2, [pc, #20]	; 33cc <ZI_LENGTH+0x108>
    33b4:	859f3018 	ldrhi	r3, [pc, #24]	; 33d4 <ZI_LENGTH+0x110>
    33b8:	e7921003 	ldr	r1, [r2, r3]
    33bc:	e2811001 	add	r1, r1, #1
    33c0:	e7821003 	str	r1, [r2, r3]
    33c4:	e8bd80f8 	pop	{r3, r4, r5, r6, r7, pc}
    33c8:	000036b4 	.word	0x000036b4
    33cc:	004002bc 	.word	0x004002bc
    33d0:	00002810 	.word	0x00002810
    33d4:	00002818 	.word	0x00002818

000033d8 <send_sdp_packet>:
    33d8:	e92d4070 	push	{r4, r5, r6, lr}
    33dc:	e24ddf4a 	sub	sp, sp, #296	; 0x128
    33e0:	e1a05001 	mov	r5, r1
    33e4:	e1a04002 	mov	r4, r2
    33e8:	e1a06003 	mov	r6, r3
    33ec:	e5cd000d 	strb	r0, [sp, #13]
    33f0:	e3e03000 	mvn	r3, #0
    33f4:	e5cd300e 	strb	r3, [sp, #14]
    33f8:	e59f306c 	ldr	r3, [pc, #108]	; 346c <send_sdp_packet+0x94>
    33fc:	e3a01000 	mov	r1, #0
    3400:	e28d2f4a 	add	r2, sp, #296	; 0x128
    3404:	e18210b3 	strh	r1, [r2, r3]
    3408:	e3a03007 	mov	r3, #7
    340c:	e5cd300c 	strb	r3, [sp, #12]
    3410:	e59f3058 	ldr	r3, [pc, #88]	; 3470 <send_sdp_packet+0x98>
    3414:	e5933018 	ldr	r3, [r3, #24]
    3418:	e1e03c83 	mvn	r3, r3, lsl #25
    341c:	e1e03ca3 	mvn	r3, r3, lsr #25
    3420:	e5cd300f 	strb	r3, [sp, #15]
    3424:	ebfffad0 	bl	1f6c <spin1_get_chip_id>
    3428:	e59f3044 	ldr	r3, [pc, #68]	; 3474 <send_sdp_packet+0x9c>
    342c:	e28d1f4a 	add	r1, sp, #296	; 0x128
    3430:	e18100b3 	strh	r0, [r1, r3]
    3434:	e243300a 	sub	r3, r3, #10
    3438:	e3a0201c 	mov	r2, #28
    343c:	e18120b3 	strh	r2, [r1, r3]
    3440:	e283300c 	add	r3, r3, #12
    3444:	e18150b3 	strh	r5, [r1, r3]
    3448:	e58d4018 	str	r4, [sp, #24]
    344c:	e58d601c 	str	r6, [sp, #28]
    3450:	e59d3138 	ldr	r3, [sp, #312]	; 0x138
    3454:	e58d3020 	str	r3, [sp, #32]
    3458:	e28d0004 	add	r0, sp, #4
    345c:	e3a0100a 	mov	r1, #10
    3460:	ebfff41b 	bl	4d4 <spin1_send_sdp_msg>
    3464:	e28ddf4a 	add	sp, sp, #296	; 0x128
    3468:	e8bd8070 	pop	{r4, r5, r6, pc}
    346c:	fffffee8 	.word	0xfffffee8
    3470:	0040029c 	.word	0x0040029c
    3474:	fffffeea 	.word	0xfffffeea

00003478 <c_main>:
    3478:	e92d4ff0 	push	{r4, r5, r6, r7, r8, r9, sl, fp, lr}
    347c:	e24dd00c 	sub	sp, sp, #12
    3480:	e3a00000 	mov	r0, #0
    3484:	e59f11f8 	ldr	r1, [pc, #504]	; 3684 <c_main+0x20c>
    3488:	ebfffda6 	bl	2b28 <io_printf>
    348c:	e3a00040 	mov	r0, #64	; 0x40
    3490:	e59f11f0 	ldr	r1, [pc, #496]	; 3688 <c_main+0x210>
    3494:	ebfff6d4 	bl	fec <spin1_set_core_map>
    3498:	ebfffaaf 	bl	1f5c <spin1_get_core_id>
    349c:	e59fc1e8 	ldr	ip, [pc, #488]	; 368c <c_main+0x214>
    34a0:	e2804c73 	add	r4, r0, #29440	; 0x7300
    34a4:	e28440ff 	add	r4, r4, #255	; 0xff
    34a8:	e1a04804 	lsl	r4, r4, #16
    34ac:	e8b4000f 	ldm	r4!, {r0, r1, r2, r3}
    34b0:	e1a0e00c 	mov	lr, ip
    34b4:	e8ae000f 	stmia	lr!, {r0, r1, r2, r3}
    34b8:	e894000f 	ldm	r4, {r0, r1, r2, r3}
    34bc:	e88e000f 	stm	lr, {r0, r1, r2, r3}
    34c0:	e3a00ffa 	mov	r0, #1000	; 0x3e8
    34c4:	ebfff6c4 	bl	fdc <spin1_set_timer_tick>
    34c8:	e3a00000 	mov	r0, #0
    34cc:	e59f11bc 	ldr	r1, [pc, #444]	; 3690 <c_main+0x218>
    34d0:	e3e02000 	mvn	r2, #0
    34d4:	ebfff692 	bl	f24 <spin1_callback_on>
    34d8:	e3a00002 	mov	r0, #2
    34dc:	e59f11b0 	ldr	r1, [pc, #432]	; 3694 <c_main+0x21c>
    34e0:	e3a02000 	mov	r2, #0
    34e4:	ebfff68e 	bl	f24 <spin1_callback_on>
    34e8:	e59f41a8 	ldr	r4, [pc, #424]	; 3698 <c_main+0x220>
    34ec:	e3a0a040 	mov	sl, #64	; 0x40
    34f0:	e3a08000 	mov	r8, #0
    34f4:	e1a09008 	mov	r9, r8
    34f8:	e1a0b004 	mov	fp, r4
    34fc:	e3a02001 	mov	r2, #1
    3500:	e5c4200d 	strb	r2, [r4, #13]
    3504:	e3a03007 	mov	r3, #7
    3508:	e5c4300c 	strb	r3, [r4, #12]
    350c:	e3a06000 	mov	r6, #0
    3510:	e1c461b0 	strh	r6, [r4, #16]
    3514:	e3e02000 	mvn	r2, #0
    3518:	e5c4200e 	strb	r2, [r4, #14]
    351c:	ebfffa92 	bl	1f6c <spin1_get_chip_id>
    3520:	e1c401b2 	strh	r0, [r4, #18]
    3524:	e3a03060 	mov	r3, #96	; 0x60
    3528:	e5c4300f 	strb	r3, [r4, #15]
    352c:	ebfffa8a 	bl	1f5c <spin1_get_core_id>
    3530:	e3800060 	orr	r0, r0, #96	; 0x60
    3534:	e5c4000f 	strb	r0, [r4, #15]
    3538:	e1c4a1b4 	strh	sl, [r4, #20]
    353c:	e088700b 	add	r7, r8, fp
    3540:	e1c760b8 	strh	r6, [r7, #8]
    3544:	e3a02001 	mov	r2, #1
    3548:	e5c42131 	strb	r2, [r4, #305]	; 0x131
    354c:	e3a03007 	mov	r3, #7
    3550:	e5c43130 	strb	r3, [r4, #304]	; 0x130
    3554:	e2875f4d 	add	r5, r7, #308	; 0x134
    3558:	e1c560b0 	strh	r6, [r5]
    355c:	e3e02000 	mvn	r2, #0
    3560:	e5c42132 	strb	r2, [r4, #306]	; 0x132
    3564:	ebfffa80 	bl	1f6c <spin1_get_chip_id>
    3568:	e1c500b2 	strh	r0, [r5, #2]
    356c:	e3a03060 	mov	r3, #96	; 0x60
    3570:	e5c43133 	strb	r3, [r4, #307]	; 0x133
    3574:	ebfffa78 	bl	1f5c <spin1_get_core_id>
    3578:	e3800060 	orr	r0, r0, #96	; 0x60
    357c:	e5c40133 	strb	r0, [r4, #307]	; 0x133
    3580:	e2873f4e 	add	r3, r7, #312	; 0x138
    3584:	e1c3a0b0 	strh	sl, [r3]
    3588:	e2877f4b 	add	r7, r7, #300	; 0x12c
    358c:	e1c760b0 	strh	r6, [r7]
    3590:	e3a03f97 	mov	r3, #604	; 0x25c
    3594:	e023b399 	mla	r3, r9, r3, fp
    3598:	e2833004 	add	r3, r3, #4
    359c:	e788300b 	str	r3, [r8, fp]
    35a0:	e584624c 	str	r6, [r4, #588]	; 0x24c
    35a4:	e5846250 	str	r6, [r4, #592]	; 0x250
    35a8:	e5846254 	str	r6, [r4, #596]	; 0x254
    35ac:	e5846258 	str	r6, [r4, #600]	; 0x258
    35b0:	e2899001 	add	r9, r9, #1
    35b4:	e2888f97 	add	r8, r8, #604	; 0x25c
    35b8:	e2844f97 	add	r4, r4, #604	; 0x25c
    35bc:	e28aa001 	add	sl, sl, #1
    35c0:	e1a0a80a 	lsl	sl, sl, #16
    35c4:	e1a0a82a 	lsr	sl, sl, #16
    35c8:	e3590011 	cmp	r9, #17
    35cc:	1affffca 	bne	34fc <c_main+0x84>
    35d0:	e1a00006 	mov	r0, r6
    35d4:	e59f10c0 	ldr	r1, [pc, #192]	; 369c <c_main+0x224>
    35d8:	ebfffd52 	bl	2b28 <io_printf>
    35dc:	ebfff8ab 	bl	1890 <spin1_start>
    35e0:	e1a00006 	mov	r0, r6
    35e4:	e59f10b4 	ldr	r1, [pc, #180]	; 36a0 <c_main+0x228>
    35e8:	ebfffd4e 	bl	2b28 <io_printf>
    35ec:	e59f60b0 	ldr	r6, [pc, #176]	; 36a4 <c_main+0x22c>
    35f0:	e1a00006 	mov	r0, r6
    35f4:	ebfff7e3 	bl	1588 <spin1_delay_us>
    35f8:	e59f5098 	ldr	r5, [pc, #152]	; 3698 <c_main+0x220>
    35fc:	e3a04d97 	mov	r4, #9664	; 0x25c0
    3600:	e7953004 	ldr	r3, [r5, r4]
    3604:	e3a02051 	mov	r2, #81	; 0x51
    3608:	e1c321b0 	strh	r2, [r3, #16]
    360c:	e7953004 	ldr	r3, [r5, r4]
    3610:	e3a02018 	mov	r2, #24
    3614:	e1c320b4 	strh	r2, [r3, #4]
    3618:	e7950004 	ldr	r0, [r5, r4]
    361c:	e3a0100a 	mov	r1, #10
    3620:	ebfff3ab 	bl	4d4 <spin1_send_sdp_msg>
    3624:	e1a00006 	mov	r0, r6
    3628:	ebfff7d6 	bl	1588 <spin1_delay_us>
    362c:	e7950004 	ldr	r0, [r5, r4]
    3630:	e3a0100a 	mov	r1, #10
    3634:	ebfff3a6 	bl	4d4 <spin1_send_sdp_msg>
    3638:	e1a00006 	mov	r0, r6
    363c:	ebfff7d1 	bl	1588 <spin1_delay_us>
    3640:	e3a04000 	mov	r4, #0
    3644:	e58d4000 	str	r4, [sp]
    3648:	e3a00002 	mov	r0, #2
    364c:	e3a01050 	mov	r1, #80	; 0x50
    3650:	e1a02004 	mov	r2, r4
    3654:	e1a03004 	mov	r3, r4
    3658:	ebffff5e 	bl	33d8 <send_sdp_packet>
    365c:	e1a00006 	mov	r0, r6
    3660:	ebfff7c8 	bl	1588 <spin1_delay_us>
    3664:	e58d4000 	str	r4, [sp]
    3668:	e3a00002 	mov	r0, #2
    366c:	e3a01050 	mov	r1, #80	; 0x50
    3670:	e1a02004 	mov	r2, r4
    3674:	e1a03004 	mov	r3, r4
    3678:	ebffff56 	bl	33d8 <send_sdp_packet>
    367c:	e28dd00c 	add	sp, sp, #12
    3680:	e8bd8ff0 	pop	{r4, r5, r6, r7, r8, r9, sl, fp, pc}
    3684:	000036c4 	.word	0x000036c4
    3688:	74220000 	.word	0x74220000
    368c:	0040029c 	.word	0x0040029c
    3690:	000032c0 	.word	0x000032c0
    3694:	000031fc 	.word	0x000031fc
    3698:	004002bc 	.word	0x004002bc
    369c:	000036e8 	.word	0x000036e8
    36a0:	00003710 	.word	0x00003710
    36a4:	00002710 	.word	0x00002710
    36a8:	706f7453 	.word	0x706f7453
    36ac:	676e6970 	.word	0x676e6970
    36b0:	00000a21 	.word	0x00000a21
    36b4:	4f4f4f4e 	.word	0x4f4f4f4e
    36b8:	20214f4f 	.word	0x20214f4f
    36bc:	202c7825 	.word	0x202c7825
    36c0:	000a7825 	.word	0x000a7825
    36c4:	6c6c6548 	.word	0x6c6c6548
    36c8:	57202c6f 	.word	0x57202c6f
    36cc:	646c726f 	.word	0x646c726f
    36d0:	6f420a21 	.word	0x6f420a21
    36d4:	6e69746f 	.word	0x6e69746f
    36d8:	70612067 	.word	0x70612067
    36dc:	75645f70 	.word	0x75645f70
    36e0:	2e2e706d 	.word	0x2e2e706d
    36e4:	00000a2e 	.word	0x00000a2e
    36e8:	5f707061 	.word	0x5f707061
    36ec:	706d7564 	.word	0x706d7564
    36f0:	6f6f6220 	.word	0x6f6f6220
    36f4:	21646574 	.word	0x21646574
    36f8:	6174530a 	.word	0x6174530a
    36fc:	6e697472 	.word	0x6e697472
    3700:	70612067 	.word	0x70612067
    3704:	75645f70 	.word	0x75645f70
    3708:	2e2e706d 	.word	0x2e2e706d
    370c:	00000a2e 	.word	0x00000a2e
    3710:	5f707061 	.word	0x5f707061
    3714:	706d7564 	.word	0x706d7564
    3718:	6d6f6320 	.word	0x6d6f6320
    371c:	74656c70 	.word	0x74656c70
    3720:	000a2e65 	.word	0x000a2e65
